; Listing generated by Microsoft (R) Optimizing Compiler Version 19.00.23026.0 

	TITLE	D:\VS2015Projects\DLL-LIB\MyDLL\MyDLL.cpp
	.686P
	.XMM
	include listing.inc
	.model	flat

INCLUDELIB MSVCRTD
INCLUDELIB OLDNAMES

PUBLIC	?__empty_global_delete@@YAXPAX@Z		; __empty_global_delete
PUBLIC	?__empty_global_delete@@YAXPAXI@Z		; __empty_global_delete
PUBLIC	?Add@MyDLLFuncs@1@SANNN@Z			; MyDLLFuncs::MyDLLFuncs::Add
PUBLIC	?Subtract@MyDLLFuncs@1@SANNN@Z			; MyDLLFuncs::MyDLLFuncs::Subtract
PUBLIC	?Multiply@MyDLLFuncs@1@SANNN@Z			; MyDLLFuncs::MyDLLFuncs::Multiply
PUBLIC	?Divide@MyDLLFuncs@1@SANNN@Z			; MyDLLFuncs::MyDLLFuncs::Divide
PUBLIC	??0exception@std@@QAE@QBD@Z			; std::exception::exception
PUBLIC	??0exception@std@@QAE@ABV01@@Z			; std::exception::exception
PUBLIC	??1exception@std@@UAE@XZ			; std::exception::~exception
PUBLIC	?what@exception@std@@UBEPBDXZ			; std::exception::what
PUBLIC	??_Gexception@std@@UAEPAXI@Z			; std::exception::`scalar deleting destructor'
PUBLIC	?length@?$char_traits@D@std@@SAIPBD@Z		; std::char_traits<char>::length
PUBLIC	?eq_int_type@?$char_traits@D@std@@SA_NABH0@Z	; std::char_traits<char>::eq_int_type
PUBLIC	?eof@?$char_traits@D@std@@SAHXZ			; std::char_traits<char>::eof
PUBLIC	??0logic_error@std@@QAE@PBD@Z			; std::logic_error::logic_error
PUBLIC	??1logic_error@std@@UAE@XZ			; std::logic_error::~logic_error
PUBLIC	??0logic_error@std@@QAE@ABV01@@Z		; std::logic_error::logic_error
PUBLIC	??_Glogic_error@std@@UAEPAXI@Z			; std::logic_error::`scalar deleting destructor'
PUBLIC	??0invalid_argument@std@@QAE@PBD@Z		; std::invalid_argument::invalid_argument
PUBLIC	??1invalid_argument@std@@UAE@XZ			; std::invalid_argument::~invalid_argument
PUBLIC	??0invalid_argument@std@@QAE@ABV01@@Z		; std::invalid_argument::invalid_argument
PUBLIC	??_Ginvalid_argument@std@@UAEPAXI@Z		; std::invalid_argument::`scalar deleting destructor'
PUBLIC	??$?6U?$char_traits@D@std@@@std@@YAAAV?$basic_ostream@DU?$char_traits@D@std@@@0@AAV10@PBD@Z ; std::operator<<<std::char_traits<char> >
PUBLIC	??$endl@DU?$char_traits@D@std@@@std@@YAAAV?$basic_ostream@DU?$char_traits@D@std@@@0@AAV10@@Z ; std::endl<char,std::char_traits<char> >
PUBLIC	??0_Sentry_base@?$basic_ostream@DU?$char_traits@D@std@@@std@@QAE@AAV12@@Z ; std::basic_ostream<char,std::char_traits<char> >::_Sentry_base::_Sentry_base
PUBLIC	??1_Sentry_base@?$basic_ostream@DU?$char_traits@D@std@@@std@@QAE@XZ ; std::basic_ostream<char,std::char_traits<char> >::_Sentry_base::~_Sentry_base
PUBLIC	??0sentry@?$basic_ostream@DU?$char_traits@D@std@@@std@@QAE@AAV12@@Z ; std::basic_ostream<char,std::char_traits<char> >::sentry::sentry
PUBLIC	??1sentry@?$basic_ostream@DU?$char_traits@D@std@@@std@@QAE@XZ ; std::basic_ostream<char,std::char_traits<char> >::sentry::~sentry
PUBLIC	??Bsentry@?$basic_ostream@DU?$char_traits@D@std@@@std@@QBE_NXZ ; std::basic_ostream<char,std::char_traits<char> >::sentry::operator bool
PUBLIC	??_7exception@std@@6B@				; std::exception::`vftable'
PUBLIC	??_C@_0BC@EOODALEL@Unknown?5exception?$AA@	; `string'
PUBLIC	??_7logic_error@std@@6B@			; std::logic_error::`vftable'
PUBLIC	??_7invalid_argument@std@@6B@			; std::invalid_argument::`vftable'
PUBLIC	??_R0?AVexception@std@@@8			; std::exception `RTTI Type Descriptor'
PUBLIC	__CT??_R0?AVexception@std@@@8??0exception@std@@QAE@ABV01@@Z12
PUBLIC	??_C@_0BO@FDNPFOHF@Called?5from?5a?5DLL?4?5Returning?5?$AA@ ; `string'
PUBLIC	??_C@_0BD@NNNEKMHO@Called?5from?5a?5DLL?4?$AA@	; `string'
PUBLIC	__TI3?AVinvalid_argument@std@@
PUBLIC	__CTA3?AVinvalid_argument@std@@
PUBLIC	??_R0?AVinvalid_argument@std@@@8		; std::invalid_argument `RTTI Type Descriptor'
PUBLIC	__CT??_R0?AVinvalid_argument@std@@@8??0invalid_argument@std@@QAE@ABV01@@Z12
PUBLIC	??_R0?AVlogic_error@std@@@8			; std::logic_error `RTTI Type Descriptor'
PUBLIC	__CT??_R0?AVlogic_error@std@@@8??0logic_error@std@@QAE@ABV01@@Z12
PUBLIC	??_C@_0BC@IHENMCGI@b?5cannot?5be?5zero?$CB?$AA@	; `string'
PUBLIC	??_R4exception@std@@6B@				; std::exception::`RTTI Complete Object Locator'
PUBLIC	??_R3exception@std@@8				; std::exception::`RTTI Class Hierarchy Descriptor'
PUBLIC	??_R2exception@std@@8				; std::exception::`RTTI Base Class Array'
PUBLIC	??_R1A@?0A@EA@exception@std@@8			; std::exception::`RTTI Base Class Descriptor at (0,-1,0,64)'
PUBLIC	??_R4logic_error@std@@6B@			; std::logic_error::`RTTI Complete Object Locator'
PUBLIC	??_R3logic_error@std@@8				; std::logic_error::`RTTI Class Hierarchy Descriptor'
PUBLIC	??_R2logic_error@std@@8				; std::logic_error::`RTTI Base Class Array'
PUBLIC	??_R1A@?0A@EA@logic_error@std@@8		; std::logic_error::`RTTI Base Class Descriptor at (0,-1,0,64)'
PUBLIC	??_R4invalid_argument@std@@6B@			; std::invalid_argument::`RTTI Complete Object Locator'
PUBLIC	??_R3invalid_argument@std@@8			; std::invalid_argument::`RTTI Class Hierarchy Descriptor'
PUBLIC	??_R2invalid_argument@std@@8			; std::invalid_argument::`RTTI Base Class Array'
PUBLIC	??_R1A@?0A@EA@invalid_argument@std@@8		; std::invalid_argument::`RTTI Base Class Descriptor at (0,-1,0,64)'
PUBLIC	__real@0000000000000000
EXTRN	??3@YAXPAXI@Z:PROC				; operator delete
EXTRN	_strlen:PROC
EXTRN	__imp____std_exception_copy:PROC
EXTRN	__imp____std_exception_destroy:PROC
EXTRN	??_Eexception@std@@UAEPAXI@Z:PROC		; std::exception::`vector deleting destructor'
EXTRN	__imp_?uncaught_exception@std@@YA_NXZ:PROC
EXTRN	??_Elogic_error@std@@UAEPAXI@Z:PROC		; std::logic_error::`vector deleting destructor'
EXTRN	??_Einvalid_argument@std@@UAEPAXI@Z:PROC	; std::invalid_argument::`vector deleting destructor'
EXTRN	__imp_?good@ios_base@std@@QBE_NXZ:PROC
EXTRN	__imp_?flags@ios_base@std@@QBEHXZ:PROC
EXTRN	__imp_?width@ios_base@std@@QBE_JXZ:PROC
EXTRN	__imp_?width@ios_base@std@@QAE_J_J@Z:PROC
EXTRN	__imp_?sputc@?$basic_streambuf@DU?$char_traits@D@std@@@std@@QAEHD@Z:PROC
EXTRN	__imp_?sputn@?$basic_streambuf@DU?$char_traits@D@std@@@std@@QAE_JPBD_J@Z:PROC
EXTRN	__imp_?setstate@?$basic_ios@DU?$char_traits@D@std@@@std@@QAEXH_N@Z:PROC
EXTRN	__imp_?tie@?$basic_ios@DU?$char_traits@D@std@@@std@@QBEPAV?$basic_ostream@DU?$char_traits@D@std@@@2@XZ:PROC
EXTRN	__imp_?rdbuf@?$basic_ios@DU?$char_traits@D@std@@@std@@QBEPAV?$basic_streambuf@DU?$char_traits@D@std@@@2@XZ:PROC
EXTRN	__imp_?fill@?$basic_ios@DU?$char_traits@D@std@@@std@@QBEDXZ:PROC
EXTRN	__imp_?widen@?$basic_ios@DU?$char_traits@D@std@@@std@@QBEDD@Z:PROC
EXTRN	__imp_?_Osfx@?$basic_ostream@DU?$char_traits@D@std@@@std@@QAEXXZ:PROC
EXTRN	__imp_??6?$basic_ostream@DU?$char_traits@D@std@@@std@@QAEAAV01@P6AAAV01@AAV01@@Z@Z:PROC
EXTRN	__imp_??6?$basic_ostream@DU?$char_traits@D@std@@@std@@QAEAAV01@N@Z:PROC
EXTRN	__imp_?put@?$basic_ostream@DU?$char_traits@D@std@@@std@@QAEAAV12@D@Z:PROC
EXTRN	__imp_?flush@?$basic_ostream@DU?$char_traits@D@std@@@std@@QAEAAV12@XZ:PROC
EXTRN	@_RTC_CheckStackVars@8:PROC
EXTRN	@__security_check_cookie@4:PROC
EXTRN	__CxxThrowException@8:PROC
EXTRN	__RTC_CheckEsp:PROC
EXTRN	__RTC_InitBase:PROC
EXTRN	__RTC_Shutdown:PROC
EXTRN	___CxxFrameHandler3:PROC
EXTRN	??_7type_info@@6B@:QWORD			; type_info::`vftable'
EXTRN	__imp_?cout@std@@3V?$basic_ostream@DU?$char_traits@D@std@@@1@A:BYTE
EXTRN	___security_cookie:DWORD
EXTRN	__fltused:DWORD
;	COMDAT __real@0000000000000000
CONST	SEGMENT
__real@0000000000000000 DQ 00000000000000000r	; 0
CONST	ENDS
;	COMDAT rtc$TMZ
rtc$TMZ	SEGMENT
__RTC_Shutdown.rtc$TMZ DD FLAT:__RTC_Shutdown
rtc$TMZ	ENDS
;	COMDAT rtc$IMZ
rtc$IMZ	SEGMENT
__RTC_InitBase.rtc$IMZ DD FLAT:__RTC_InitBase
rtc$IMZ	ENDS
;	COMDAT ??_R1A@?0A@EA@invalid_argument@std@@8
rdata$r	SEGMENT
??_R1A@?0A@EA@invalid_argument@std@@8 DD FLAT:??_R0?AVinvalid_argument@std@@@8 ; std::invalid_argument::`RTTI Base Class Descriptor at (0,-1,0,64)'
	DD	02H
	DD	00H
	DD	0ffffffffH
	DD	00H
	DD	040H
	DD	FLAT:??_R3invalid_argument@std@@8
rdata$r	ENDS
;	COMDAT ??_R2invalid_argument@std@@8
rdata$r	SEGMENT
??_R2invalid_argument@std@@8 DD FLAT:??_R1A@?0A@EA@invalid_argument@std@@8 ; std::invalid_argument::`RTTI Base Class Array'
	DD	FLAT:??_R1A@?0A@EA@logic_error@std@@8
	DD	FLAT:??_R1A@?0A@EA@exception@std@@8
rdata$r	ENDS
;	COMDAT ??_R3invalid_argument@std@@8
rdata$r	SEGMENT
??_R3invalid_argument@std@@8 DD 00H			; std::invalid_argument::`RTTI Class Hierarchy Descriptor'
	DD	00H
	DD	03H
	DD	FLAT:??_R2invalid_argument@std@@8
rdata$r	ENDS
;	COMDAT ??_R4invalid_argument@std@@6B@
rdata$r	SEGMENT
??_R4invalid_argument@std@@6B@ DD 00H			; std::invalid_argument::`RTTI Complete Object Locator'
	DD	00H
	DD	00H
	DD	FLAT:??_R0?AVinvalid_argument@std@@@8
	DD	FLAT:??_R3invalid_argument@std@@8
rdata$r	ENDS
;	COMDAT ??_R1A@?0A@EA@logic_error@std@@8
rdata$r	SEGMENT
??_R1A@?0A@EA@logic_error@std@@8 DD FLAT:??_R0?AVlogic_error@std@@@8 ; std::logic_error::`RTTI Base Class Descriptor at (0,-1,0,64)'
	DD	01H
	DD	00H
	DD	0ffffffffH
	DD	00H
	DD	040H
	DD	FLAT:??_R3logic_error@std@@8
rdata$r	ENDS
;	COMDAT ??_R2logic_error@std@@8
rdata$r	SEGMENT
??_R2logic_error@std@@8 DD FLAT:??_R1A@?0A@EA@logic_error@std@@8 ; std::logic_error::`RTTI Base Class Array'
	DD	FLAT:??_R1A@?0A@EA@exception@std@@8
rdata$r	ENDS
;	COMDAT ??_R3logic_error@std@@8
rdata$r	SEGMENT
??_R3logic_error@std@@8 DD 00H				; std::logic_error::`RTTI Class Hierarchy Descriptor'
	DD	00H
	DD	02H
	DD	FLAT:??_R2logic_error@std@@8
rdata$r	ENDS
;	COMDAT ??_R4logic_error@std@@6B@
rdata$r	SEGMENT
??_R4logic_error@std@@6B@ DD 00H			; std::logic_error::`RTTI Complete Object Locator'
	DD	00H
	DD	00H
	DD	FLAT:??_R0?AVlogic_error@std@@@8
	DD	FLAT:??_R3logic_error@std@@8
rdata$r	ENDS
;	COMDAT ??_R1A@?0A@EA@exception@std@@8
rdata$r	SEGMENT
??_R1A@?0A@EA@exception@std@@8 DD FLAT:??_R0?AVexception@std@@@8 ; std::exception::`RTTI Base Class Descriptor at (0,-1,0,64)'
	DD	00H
	DD	00H
	DD	0ffffffffH
	DD	00H
	DD	040H
	DD	FLAT:??_R3exception@std@@8
rdata$r	ENDS
;	COMDAT ??_R2exception@std@@8
rdata$r	SEGMENT
??_R2exception@std@@8 DD FLAT:??_R1A@?0A@EA@exception@std@@8 ; std::exception::`RTTI Base Class Array'
rdata$r	ENDS
;	COMDAT ??_R3exception@std@@8
rdata$r	SEGMENT
??_R3exception@std@@8 DD 00H				; std::exception::`RTTI Class Hierarchy Descriptor'
	DD	00H
	DD	01H
	DD	FLAT:??_R2exception@std@@8
rdata$r	ENDS
;	COMDAT ??_R4exception@std@@6B@
rdata$r	SEGMENT
??_R4exception@std@@6B@ DD 00H				; std::exception::`RTTI Complete Object Locator'
	DD	00H
	DD	00H
	DD	FLAT:??_R0?AVexception@std@@@8
	DD	FLAT:??_R3exception@std@@8
rdata$r	ENDS
;	COMDAT ??_C@_0BC@IHENMCGI@b?5cannot?5be?5zero?$CB?$AA@
CONST	SEGMENT
??_C@_0BC@IHENMCGI@b?5cannot?5be?5zero?$CB?$AA@ DB 'b cannot be zero!', 00H ; `string'
CONST	ENDS
;	COMDAT __CT??_R0?AVlogic_error@std@@@8??0logic_error@std@@QAE@ABV01@@Z12
xdata$x	SEGMENT
__CT??_R0?AVlogic_error@std@@@8??0logic_error@std@@QAE@ABV01@@Z12 DD 00H
	DD	FLAT:??_R0?AVlogic_error@std@@@8
	DD	00H
	DD	0ffffffffH
	ORG $+4
	DD	0cH
	DD	FLAT:??0logic_error@std@@QAE@ABV01@@Z
xdata$x	ENDS
;	COMDAT ??_R0?AVlogic_error@std@@@8
data$r	SEGMENT
??_R0?AVlogic_error@std@@@8 DD FLAT:??_7type_info@@6B@	; std::logic_error `RTTI Type Descriptor'
	DD	00H
	DB	'.?AVlogic_error@std@@', 00H
data$r	ENDS
;	COMDAT __CT??_R0?AVinvalid_argument@std@@@8??0invalid_argument@std@@QAE@ABV01@@Z12
xdata$x	SEGMENT
__CT??_R0?AVinvalid_argument@std@@@8??0invalid_argument@std@@QAE@ABV01@@Z12 DD 00H
	DD	FLAT:??_R0?AVinvalid_argument@std@@@8
	DD	00H
	DD	0ffffffffH
	ORG $+4
	DD	0cH
	DD	FLAT:??0invalid_argument@std@@QAE@ABV01@@Z
xdata$x	ENDS
;	COMDAT ??_R0?AVinvalid_argument@std@@@8
data$r	SEGMENT
??_R0?AVinvalid_argument@std@@@8 DD FLAT:??_7type_info@@6B@ ; std::invalid_argument `RTTI Type Descriptor'
	DD	00H
	DB	'.?AVinvalid_argument@std@@', 00H
data$r	ENDS
;	COMDAT __CTA3?AVinvalid_argument@std@@
xdata$x	SEGMENT
__CTA3?AVinvalid_argument@std@@ DD 03H
	DD	FLAT:__CT??_R0?AVinvalid_argument@std@@@8??0invalid_argument@std@@QAE@ABV01@@Z12
	DD	FLAT:__CT??_R0?AVlogic_error@std@@@8??0logic_error@std@@QAE@ABV01@@Z12
	DD	FLAT:__CT??_R0?AVexception@std@@@8??0exception@std@@QAE@ABV01@@Z12
xdata$x	ENDS
;	COMDAT __TI3?AVinvalid_argument@std@@
xdata$x	SEGMENT
__TI3?AVinvalid_argument@std@@ DD 00H
	DD	FLAT:??1invalid_argument@std@@UAE@XZ
	DD	00H
	DD	FLAT:__CTA3?AVinvalid_argument@std@@
xdata$x	ENDS
;	COMDAT ??_C@_0BD@NNNEKMHO@Called?5from?5a?5DLL?4?$AA@
CONST	SEGMENT
??_C@_0BD@NNNEKMHO@Called?5from?5a?5DLL?4?$AA@ DB 'Called from a DLL.', 00H ; `string'
CONST	ENDS
;	COMDAT ??_C@_0BO@FDNPFOHF@Called?5from?5a?5DLL?4?5Returning?5?$AA@
CONST	SEGMENT
??_C@_0BO@FDNPFOHF@Called?5from?5a?5DLL?4?5Returning?5?$AA@ DB 'Called fr'
	DB	'om a DLL. Returning ', 00H			; `string'
CONST	ENDS
;	COMDAT __CT??_R0?AVexception@std@@@8??0exception@std@@QAE@ABV01@@Z12
xdata$x	SEGMENT
__CT??_R0?AVexception@std@@@8??0exception@std@@QAE@ABV01@@Z12 DD 00H
	DD	FLAT:??_R0?AVexception@std@@@8
	DD	00H
	DD	0ffffffffH
	ORG $+4
	DD	0cH
	DD	FLAT:??0exception@std@@QAE@ABV01@@Z
xdata$x	ENDS
;	COMDAT ??_R0?AVexception@std@@@8
data$r	SEGMENT
??_R0?AVexception@std@@@8 DD FLAT:??_7type_info@@6B@	; std::exception `RTTI Type Descriptor'
	DD	00H
	DB	'.?AVexception@std@@', 00H
data$r	ENDS
;	COMDAT ??_7invalid_argument@std@@6B@
CONST	SEGMENT
??_7invalid_argument@std@@6B@ DD FLAT:??_R4invalid_argument@std@@6B@ ; std::invalid_argument::`vftable'
	DD	FLAT:??_Einvalid_argument@std@@UAEPAXI@Z
	DD	FLAT:?what@exception@std@@UBEPBDXZ
CONST	ENDS
;	COMDAT ??_7logic_error@std@@6B@
CONST	SEGMENT
??_7logic_error@std@@6B@ DD FLAT:??_R4logic_error@std@@6B@ ; std::logic_error::`vftable'
	DD	FLAT:??_Elogic_error@std@@UAEPAXI@Z
	DD	FLAT:?what@exception@std@@UBEPBDXZ
CONST	ENDS
;	COMDAT ??_C@_0BC@EOODALEL@Unknown?5exception?$AA@
CONST	SEGMENT
??_C@_0BC@EOODALEL@Unknown?5exception?$AA@ DB 'Unknown exception', 00H ; `string'
CONST	ENDS
;	COMDAT ??_7exception@std@@6B@
CONST	SEGMENT
??_7exception@std@@6B@ DD FLAT:??_R4exception@std@@6B@	; std::exception::`vftable'
	DD	FLAT:??_Eexception@std@@UAEPAXI@Z
	DD	FLAT:?what@exception@std@@UBEPBDXZ
CONST	ENDS
;	COMDAT xdata$x
xdata$x	SEGMENT
__ehfuncinfo$??1sentry@?$basic_ostream@DU?$char_traits@D@std@@@std@@QAE@XZ DD 019930522H
	DD	00H
	DD	00H
	DD	2 DUP(00H)
	DD	2 DUP(00H)
	DD	00H
	DD	05H
xdata$x	ENDS
;	COMDAT xdata$x
xdata$x	SEGMENT
__unwindtable$??0sentry@?$basic_ostream@DU?$char_traits@D@std@@@std@@QAE@AAV12@@Z DD 0ffffffffH
	DD	FLAT:__unwindfunclet$??0sentry@?$basic_ostream@DU?$char_traits@D@std@@@std@@QAE@AAV12@@Z$0
__ehfuncinfo$??0sentry@?$basic_ostream@DU?$char_traits@D@std@@@std@@QAE@AAV12@@Z DD 019930522H
	DD	01H
	DD	FLAT:__unwindtable$??0sentry@?$basic_ostream@DU?$char_traits@D@std@@@std@@QAE@AAV12@@Z
	DD	2 DUP(00H)
	DD	2 DUP(00H)
	DD	00H
	DD	01H
xdata$x	ENDS
;	COMDAT xdata$x
xdata$x	SEGMENT
__ehfuncinfo$??1_Sentry_base@?$basic_ostream@DU?$char_traits@D@std@@@std@@QAE@XZ DD 019930522H
	DD	00H
	DD	00H
	DD	2 DUP(00H)
	DD	2 DUP(00H)
	DD	00H
	DD	05H
xdata$x	ENDS
;	COMDAT xdata$x
xdata$x	SEGMENT
__catchsym$??$?6U?$char_traits@D@std@@@std@@YAAAV?$basic_ostream@DU?$char_traits@D@std@@@0@AAV10@PBD@Z$3 DD 040H
	DD	00H
	DD	00H
	DD	FLAT:__catch$??$?6U?$char_traits@D@std@@@std@@YAAAV?$basic_ostream@DU?$char_traits@D@std@@@0@AAV10@PBD@Z$0
__tryblocktable$??$?6U?$char_traits@D@std@@@std@@YAAAV?$basic_ostream@DU?$char_traits@D@std@@@0@AAV10@PBD@Z DD 01H
	DD	01H
	DD	02H
	DD	01H
	DD	FLAT:__catchsym$??$?6U?$char_traits@D@std@@@std@@YAAAV?$basic_ostream@DU?$char_traits@D@std@@@0@AAV10@PBD@Z$3
__unwindtable$??$?6U?$char_traits@D@std@@@std@@YAAAV?$basic_ostream@DU?$char_traits@D@std@@@0@AAV10@PBD@Z DD 0ffffffffH
	DD	FLAT:__unwindfunclet$??$?6U?$char_traits@D@std@@@std@@YAAAV?$basic_ostream@DU?$char_traits@D@std@@@0@AAV10@PBD@Z$2
	DD	00H
	DD	00H
	DD	00H
	DD	00H
__ehfuncinfo$??$?6U?$char_traits@D@std@@@std@@YAAAV?$basic_ostream@DU?$char_traits@D@std@@@0@AAV10@PBD@Z DD 019930522H
	DD	03H
	DD	FLAT:__unwindtable$??$?6U?$char_traits@D@std@@@std@@YAAAV?$basic_ostream@DU?$char_traits@D@std@@@0@AAV10@PBD@Z
	DD	01H
	DD	FLAT:__tryblocktable$??$?6U?$char_traits@D@std@@@std@@YAAAV?$basic_ostream@DU?$char_traits@D@std@@@0@AAV10@PBD@Z
	DD	2 DUP(00H)
	DD	00H
	DD	01H
xdata$x	ENDS
; Function compile flags: /Odtp /RTCsu /ZI
; File c:\program files (x86)\microsoft visual studio 14.0\vc\include\ostream
;	COMDAT ??Bsentry@?$basic_ostream@DU?$char_traits@D@std@@@std@@QBE_NXZ
_TEXT	SEGMENT
_this$ = -8						; size = 4
??Bsentry@?$basic_ostream@DU?$char_traits@D@std@@@std@@QBE_NXZ PROC ; std::basic_ostream<char,std::char_traits<char> >::sentry::operator bool, COMDAT
; _this$ = ecx

; 141  : 			{	// test if stream state okay

  00000	55		 push	 ebp
  00001	8b ec		 mov	 ebp, esp
  00003	81 ec cc 00 00
	00		 sub	 esp, 204		; 000000ccH
  00009	53		 push	 ebx
  0000a	56		 push	 esi
  0000b	57		 push	 edi
  0000c	51		 push	 ecx
  0000d	8d bd 34 ff ff
	ff		 lea	 edi, DWORD PTR [ebp-204]
  00013	b9 33 00 00 00	 mov	 ecx, 51			; 00000033H
  00018	b8 cc cc cc cc	 mov	 eax, -858993460		; ccccccccH
  0001d	f3 ab		 rep stosd
  0001f	59		 pop	 ecx
  00020	89 4d f8	 mov	 DWORD PTR _this$[ebp], ecx

; 142  : 			return (_Ok);

  00023	8b 45 f8	 mov	 eax, DWORD PTR _this$[ebp]
  00026	8a 40 04	 mov	 al, BYTE PTR [eax+4]

; 143  : 			}

  00029	5f		 pop	 edi
  0002a	5e		 pop	 esi
  0002b	5b		 pop	 ebx
  0002c	8b e5		 mov	 esp, ebp
  0002e	5d		 pop	 ebp
  0002f	c3		 ret	 0
??Bsentry@?$basic_ostream@DU?$char_traits@D@std@@@std@@QBE_NXZ ENDP ; std::basic_ostream<char,std::char_traits<char> >::sentry::operator bool
_TEXT	ENDS
; Function compile flags: /Odtp /RTCsu /ZI
; File c:\program files (x86)\microsoft visual studio 14.0\vc\include\ostream
;	COMDAT ??1sentry@?$basic_ostream@DU?$char_traits@D@std@@@std@@QAE@XZ
_TEXT	SEGMENT
_this$ = -20						; size = 4
__$EHRec$ = -12						; size = 12
??1sentry@?$basic_ostream@DU?$char_traits@D@std@@@std@@QAE@XZ PROC ; std::basic_ostream<char,std::char_traits<char> >::sentry::~sentry, COMDAT
; _this$ = ecx

; 130  : 			{	// destroy the object

  00000	55		 push	 ebp
  00001	8b ec		 mov	 ebp, esp
  00003	6a ff		 push	 -1
  00005	68 00 00 00 00	 push	 __ehhandler$??1sentry@?$basic_ostream@DU?$char_traits@D@std@@@std@@QAE@XZ
  0000a	64 a1 00 00 00
	00		 mov	 eax, DWORD PTR fs:0
  00010	50		 push	 eax
  00011	81 ec cc 00 00
	00		 sub	 esp, 204		; 000000ccH
  00017	53		 push	 ebx
  00018	56		 push	 esi
  00019	57		 push	 edi
  0001a	51		 push	 ecx
  0001b	8d bd 28 ff ff
	ff		 lea	 edi, DWORD PTR [ebp-216]
  00021	b9 33 00 00 00	 mov	 ecx, 51			; 00000033H
  00026	b8 cc cc cc cc	 mov	 eax, -858993460		; ccccccccH
  0002b	f3 ab		 rep stosd
  0002d	59		 pop	 ecx
  0002e	a1 00 00 00 00	 mov	 eax, DWORD PTR ___security_cookie
  00033	33 c5		 xor	 eax, ebp
  00035	50		 push	 eax
  00036	8d 45 f4	 lea	 eax, DWORD PTR __$EHRec$[ebp]
  00039	64 a3 00 00 00
	00		 mov	 DWORD PTR fs:0, eax
  0003f	89 4d ec	 mov	 DWORD PTR _this$[ebp], ecx

; 131  :  #if _HAS_EXCEPTIONS
; 132  : 			if (!_XSTD uncaught_exception())

  00042	8b f4		 mov	 esi, esp
  00044	ff 15 00 00 00
	00		 call	 DWORD PTR __imp_?uncaught_exception@std@@YA_NXZ
  0004a	3b f4		 cmp	 esi, esp
  0004c	e8 00 00 00 00	 call	 __RTC_CheckEsp
  00051	0f b6 c0	 movzx	 eax, al
  00054	85 c0		 test	 eax, eax
  00056	75 14		 jne	 SHORT $LN1@sentry

; 133  : 				this->_Myostr._Osfx();

  00058	8b f4		 mov	 esi, esp
  0005a	8b 45 ec	 mov	 eax, DWORD PTR _this$[ebp]
  0005d	8b 08		 mov	 ecx, DWORD PTR [eax]
  0005f	ff 15 00 00 00
	00		 call	 DWORD PTR __imp_?_Osfx@?$basic_ostream@DU?$char_traits@D@std@@@std@@QAEXXZ
  00065	3b f4		 cmp	 esi, esp
  00067	e8 00 00 00 00	 call	 __RTC_CheckEsp
$LN1@sentry:

; 134  : 
; 135  :  #else /* _HAS_EXCEPTIONS */
; 136  : 			this->_Myostr._Osfx();
; 137  :  #endif /* _HAS_EXCEPTIONS */
; 138  : 			}

  0006c	8b 4d ec	 mov	 ecx, DWORD PTR _this$[ebp]
  0006f	e8 00 00 00 00	 call	 ??1_Sentry_base@?$basic_ostream@DU?$char_traits@D@std@@@std@@QAE@XZ ; std::basic_ostream<char,std::char_traits<char> >::_Sentry_base::~_Sentry_base
  00074	8b 4d f4	 mov	 ecx, DWORD PTR __$EHRec$[ebp]
  00077	64 89 0d 00 00
	00 00		 mov	 DWORD PTR fs:0, ecx
  0007e	59		 pop	 ecx
  0007f	5f		 pop	 edi
  00080	5e		 pop	 esi
  00081	5b		 pop	 ebx
  00082	81 c4 d8 00 00
	00		 add	 esp, 216		; 000000d8H
  00088	3b ec		 cmp	 ebp, esp
  0008a	e8 00 00 00 00	 call	 __RTC_CheckEsp
  0008f	8b e5		 mov	 esp, ebp
  00091	5d		 pop	 ebp
  00092	c3		 ret	 0
_TEXT	ENDS
;	COMDAT text$x
text$x	SEGMENT
__ehhandler$??1sentry@?$basic_ostream@DU?$char_traits@D@std@@@std@@QAE@XZ:
  00000	8b 54 24 08	 mov	 edx, DWORD PTR [esp+8]
  00004	8d 42 0c	 lea	 eax, DWORD PTR [edx+12]
  00007	8b 8a 24 ff ff
	ff		 mov	 ecx, DWORD PTR [edx-220]
  0000d	33 c8		 xor	 ecx, eax
  0000f	e8 00 00 00 00	 call	 @__security_check_cookie@4
  00014	b8 00 00 00 00	 mov	 eax, OFFSET __ehfuncinfo$??1sentry@?$basic_ostream@DU?$char_traits@D@std@@@std@@QAE@XZ
  00019	e9 00 00 00 00	 jmp	 ___CxxFrameHandler3
text$x	ENDS
??1sentry@?$basic_ostream@DU?$char_traits@D@std@@@std@@QAE@XZ ENDP ; std::basic_ostream<char,std::char_traits<char> >::sentry::~sentry
; Function compile flags: /Odtp /RTCsu /ZI
; File c:\program files (x86)\microsoft visual studio 14.0\vc\include\ostream
;	COMDAT ??0sentry@?$basic_ostream@DU?$char_traits@D@std@@@std@@QAE@AAV12@@Z
_TEXT	SEGMENT
_this$ = -20						; size = 4
__$EHRec$ = -12						; size = 12
__Ostr$ = 8						; size = 4
??0sentry@?$basic_ostream@DU?$char_traits@D@std@@@std@@QAE@AAV12@@Z PROC ; std::basic_ostream<char,std::char_traits<char> >::sentry::sentry, COMDAT
; _this$ = ecx

; 123  : 			{	// construct locking and testing stream

  00000	55		 push	 ebp
  00001	8b ec		 mov	 ebp, esp
  00003	6a ff		 push	 -1
  00005	68 00 00 00 00	 push	 __ehhandler$??0sentry@?$basic_ostream@DU?$char_traits@D@std@@@std@@QAE@AAV12@@Z
  0000a	64 a1 00 00 00
	00		 mov	 eax, DWORD PTR fs:0
  00010	50		 push	 eax
  00011	81 ec cc 00 00
	00		 sub	 esp, 204		; 000000ccH
  00017	53		 push	 ebx
  00018	56		 push	 esi
  00019	57		 push	 edi
  0001a	51		 push	 ecx
  0001b	8d bd 28 ff ff
	ff		 lea	 edi, DWORD PTR [ebp-216]
  00021	b9 33 00 00 00	 mov	 ecx, 51			; 00000033H
  00026	b8 cc cc cc cc	 mov	 eax, -858993460		; ccccccccH
  0002b	f3 ab		 rep stosd
  0002d	59		 pop	 ecx
  0002e	a1 00 00 00 00	 mov	 eax, DWORD PTR ___security_cookie
  00033	33 c5		 xor	 eax, ebp
  00035	50		 push	 eax
  00036	8d 45 f4	 lea	 eax, DWORD PTR __$EHRec$[ebp]
  00039	64 a3 00 00 00
	00		 mov	 DWORD PTR fs:0, eax
  0003f	89 4d ec	 mov	 DWORD PTR _this$[ebp], ecx

; 122  : 			: _Sentry_base(_Ostr)

  00042	8b 45 08	 mov	 eax, DWORD PTR __Ostr$[ebp]
  00045	50		 push	 eax
  00046	8b 4d ec	 mov	 ecx, DWORD PTR _this$[ebp]
  00049	e8 00 00 00 00	 call	 ??0_Sentry_base@?$basic_ostream@DU?$char_traits@D@std@@@std@@QAE@AAV12@@Z ; std::basic_ostream<char,std::char_traits<char> >::_Sentry_base::_Sentry_base
  0004e	c7 45 fc 00 00
	00 00		 mov	 DWORD PTR __$EHRec$[ebp+8], 0

; 124  : 			if (_Ostr.good() && _Ostr.tie() != 0 && _Ostr.tie() != &_Ostr)

  00055	8b 45 08	 mov	 eax, DWORD PTR __Ostr$[ebp]
  00058	8b 08		 mov	 ecx, DWORD PTR [eax]
  0005a	8b 55 08	 mov	 edx, DWORD PTR __Ostr$[ebp]
  0005d	03 51 04	 add	 edx, DWORD PTR [ecx+4]
  00060	8b f4		 mov	 esi, esp
  00062	8b ca		 mov	 ecx, edx
  00064	ff 15 00 00 00
	00		 call	 DWORD PTR __imp_?good@ios_base@std@@QBE_NXZ
  0006a	3b f4		 cmp	 esi, esp
  0006c	e8 00 00 00 00	 call	 __RTC_CheckEsp
  00071	0f b6 c0	 movzx	 eax, al
  00074	85 c0		 test	 eax, eax
  00076	74 6e		 je	 SHORT $LN2@sentry
  00078	8b 45 08	 mov	 eax, DWORD PTR __Ostr$[ebp]
  0007b	8b 08		 mov	 ecx, DWORD PTR [eax]
  0007d	8b 55 08	 mov	 edx, DWORD PTR __Ostr$[ebp]
  00080	03 51 04	 add	 edx, DWORD PTR [ecx+4]
  00083	8b f4		 mov	 esi, esp
  00085	8b ca		 mov	 ecx, edx
  00087	ff 15 00 00 00
	00		 call	 DWORD PTR __imp_?tie@?$basic_ios@DU?$char_traits@D@std@@@std@@QBEPAV?$basic_ostream@DU?$char_traits@D@std@@@2@XZ
  0008d	3b f4		 cmp	 esi, esp
  0008f	e8 00 00 00 00	 call	 __RTC_CheckEsp
  00094	85 c0		 test	 eax, eax
  00096	74 4e		 je	 SHORT $LN2@sentry
  00098	8b 45 08	 mov	 eax, DWORD PTR __Ostr$[ebp]
  0009b	8b 08		 mov	 ecx, DWORD PTR [eax]
  0009d	8b 55 08	 mov	 edx, DWORD PTR __Ostr$[ebp]
  000a0	03 51 04	 add	 edx, DWORD PTR [ecx+4]
  000a3	8b f4		 mov	 esi, esp
  000a5	8b ca		 mov	 ecx, edx
  000a7	ff 15 00 00 00
	00		 call	 DWORD PTR __imp_?tie@?$basic_ios@DU?$char_traits@D@std@@@std@@QBEPAV?$basic_ostream@DU?$char_traits@D@std@@@2@XZ
  000ad	3b f4		 cmp	 esi, esp
  000af	e8 00 00 00 00	 call	 __RTC_CheckEsp
  000b4	3b 45 08	 cmp	 eax, DWORD PTR __Ostr$[ebp]
  000b7	74 2d		 je	 SHORT $LN2@sentry

; 125  : 				_Ostr.tie()->flush();

  000b9	8b 45 08	 mov	 eax, DWORD PTR __Ostr$[ebp]
  000bc	8b 08		 mov	 ecx, DWORD PTR [eax]
  000be	8b 55 08	 mov	 edx, DWORD PTR __Ostr$[ebp]
  000c1	03 51 04	 add	 edx, DWORD PTR [ecx+4]
  000c4	8b f4		 mov	 esi, esp
  000c6	8b ca		 mov	 ecx, edx
  000c8	ff 15 00 00 00
	00		 call	 DWORD PTR __imp_?tie@?$basic_ios@DU?$char_traits@D@std@@@std@@QBEPAV?$basic_ostream@DU?$char_traits@D@std@@@2@XZ
  000ce	3b f4		 cmp	 esi, esp
  000d0	e8 00 00 00 00	 call	 __RTC_CheckEsp
  000d5	8b f4		 mov	 esi, esp
  000d7	8b c8		 mov	 ecx, eax
  000d9	ff 15 00 00 00
	00		 call	 DWORD PTR __imp_?flush@?$basic_ostream@DU?$char_traits@D@std@@@std@@QAEAAV12@XZ
  000df	3b f4		 cmp	 esi, esp
  000e1	e8 00 00 00 00	 call	 __RTC_CheckEsp
$LN2@sentry:

; 126  : 			_Ok = _Ostr.good();	// store test only after flushing tie

  000e6	8b 45 08	 mov	 eax, DWORD PTR __Ostr$[ebp]
  000e9	8b 08		 mov	 ecx, DWORD PTR [eax]
  000eb	8b 55 08	 mov	 edx, DWORD PTR __Ostr$[ebp]
  000ee	03 51 04	 add	 edx, DWORD PTR [ecx+4]
  000f1	8b f4		 mov	 esi, esp
  000f3	8b ca		 mov	 ecx, edx
  000f5	ff 15 00 00 00
	00		 call	 DWORD PTR __imp_?good@ios_base@std@@QBE_NXZ
  000fb	3b f4		 cmp	 esi, esp
  000fd	e8 00 00 00 00	 call	 __RTC_CheckEsp
  00102	8b 4d ec	 mov	 ecx, DWORD PTR _this$[ebp]
  00105	88 41 04	 mov	 BYTE PTR [ecx+4], al

; 127  : 			}

  00108	c7 45 fc ff ff
	ff ff		 mov	 DWORD PTR __$EHRec$[ebp+8], -1
  0010f	8b 45 ec	 mov	 eax, DWORD PTR _this$[ebp]
  00112	8b 4d f4	 mov	 ecx, DWORD PTR __$EHRec$[ebp]
  00115	64 89 0d 00 00
	00 00		 mov	 DWORD PTR fs:0, ecx
  0011c	59		 pop	 ecx
  0011d	5f		 pop	 edi
  0011e	5e		 pop	 esi
  0011f	5b		 pop	 ebx
  00120	81 c4 d8 00 00
	00		 add	 esp, 216		; 000000d8H
  00126	3b ec		 cmp	 ebp, esp
  00128	e8 00 00 00 00	 call	 __RTC_CheckEsp
  0012d	8b e5		 mov	 esp, ebp
  0012f	5d		 pop	 ebp
  00130	c2 04 00	 ret	 4
_TEXT	ENDS
;	COMDAT text$x
text$x	SEGMENT
__unwindfunclet$??0sentry@?$basic_ostream@DU?$char_traits@D@std@@@std@@QAE@AAV12@@Z$0:
  00000	8b 4d ec	 mov	 ecx, DWORD PTR _this$[ebp]
  00003	e9 00 00 00 00	 jmp	 ??1_Sentry_base@?$basic_ostream@DU?$char_traits@D@std@@@std@@QAE@XZ ; std::basic_ostream<char,std::char_traits<char> >::_Sentry_base::~_Sentry_base
__ehhandler$??0sentry@?$basic_ostream@DU?$char_traits@D@std@@@std@@QAE@AAV12@@Z:
  00008	8b 54 24 08	 mov	 edx, DWORD PTR [esp+8]
  0000c	8d 42 0c	 lea	 eax, DWORD PTR [edx+12]
  0000f	8b 8a 24 ff ff
	ff		 mov	 ecx, DWORD PTR [edx-220]
  00015	33 c8		 xor	 ecx, eax
  00017	e8 00 00 00 00	 call	 @__security_check_cookie@4
  0001c	b8 00 00 00 00	 mov	 eax, OFFSET __ehfuncinfo$??0sentry@?$basic_ostream@DU?$char_traits@D@std@@@std@@QAE@AAV12@@Z
  00021	e9 00 00 00 00	 jmp	 ___CxxFrameHandler3
text$x	ENDS
??0sentry@?$basic_ostream@DU?$char_traits@D@std@@@std@@QAE@AAV12@@Z ENDP ; std::basic_ostream<char,std::char_traits<char> >::sentry::sentry
; Function compile flags: /Odtp /RTCsu /ZI
; File c:\program files (x86)\microsoft visual studio 14.0\vc\include\ostream
;	COMDAT ??1_Sentry_base@?$basic_ostream@DU?$char_traits@D@std@@@std@@QAE@XZ
_TEXT	SEGMENT
tv92 = -224						; size = 4
tv86 = -220						; size = 4
tv72 = -220						; size = 4
_this$ = -20						; size = 4
__$EHRec$ = -12						; size = 12
??1_Sentry_base@?$basic_ostream@DU?$char_traits@D@std@@@std@@QAE@XZ PROC ; std::basic_ostream<char,std::char_traits<char> >::_Sentry_base::~_Sentry_base, COMDAT
; _this$ = ecx

; 106  : 			{	// destroy after unlocking

  00000	55		 push	 ebp
  00001	8b ec		 mov	 ebp, esp
  00003	6a ff		 push	 -1
  00005	68 00 00 00 00	 push	 __ehhandler$??1_Sentry_base@?$basic_ostream@DU?$char_traits@D@std@@@std@@QAE@XZ
  0000a	64 a1 00 00 00
	00		 mov	 eax, DWORD PTR fs:0
  00010	50		 push	 eax
  00011	81 ec d4 00 00
	00		 sub	 esp, 212		; 000000d4H
  00017	53		 push	 ebx
  00018	56		 push	 esi
  00019	57		 push	 edi
  0001a	51		 push	 ecx
  0001b	8d bd 20 ff ff
	ff		 lea	 edi, DWORD PTR [ebp-224]
  00021	b9 35 00 00 00	 mov	 ecx, 53			; 00000035H
  00026	b8 cc cc cc cc	 mov	 eax, -858993460		; ccccccccH
  0002b	f3 ab		 rep stosd
  0002d	59		 pop	 ecx
  0002e	a1 00 00 00 00	 mov	 eax, DWORD PTR ___security_cookie
  00033	33 c5		 xor	 eax, ebp
  00035	50		 push	 eax
  00036	8d 45 f4	 lea	 eax, DWORD PTR __$EHRec$[ebp]
  00039	64 a3 00 00 00
	00		 mov	 DWORD PTR fs:0, eax
  0003f	89 4d ec	 mov	 DWORD PTR _this$[ebp], ecx

; 107  : 			if (_Myostr.rdbuf() != 0)

  00042	8b 45 ec	 mov	 eax, DWORD PTR _this$[ebp]
  00045	8b 08		 mov	 ecx, DWORD PTR [eax]
  00047	89 8d 24 ff ff
	ff		 mov	 DWORD PTR tv72[ebp], ecx
  0004d	8b 95 24 ff ff
	ff		 mov	 edx, DWORD PTR tv72[ebp]
  00053	8b 02		 mov	 eax, DWORD PTR [edx]
  00055	8b 8d 24 ff ff
	ff		 mov	 ecx, DWORD PTR tv72[ebp]
  0005b	03 48 04	 add	 ecx, DWORD PTR [eax+4]
  0005e	8b f4		 mov	 esi, esp
  00060	ff 15 00 00 00
	00		 call	 DWORD PTR __imp_?rdbuf@?$basic_ios@DU?$char_traits@D@std@@@std@@QBEPAV?$basic_streambuf@DU?$char_traits@D@std@@@2@XZ
  00066	3b f4		 cmp	 esi, esp
  00068	e8 00 00 00 00	 call	 __RTC_CheckEsp
  0006d	85 c0		 test	 eax, eax
  0006f	74 4d		 je	 SHORT $LN3@Sentry_bas

; 108  : 				_Myostr.rdbuf()->_Unlock();

  00071	8b 45 ec	 mov	 eax, DWORD PTR _this$[ebp]
  00074	8b 08		 mov	 ecx, DWORD PTR [eax]
  00076	89 8d 24 ff ff
	ff		 mov	 DWORD PTR tv86[ebp], ecx
  0007c	8b 95 24 ff ff
	ff		 mov	 edx, DWORD PTR tv86[ebp]
  00082	8b 02		 mov	 eax, DWORD PTR [edx]
  00084	8b 8d 24 ff ff
	ff		 mov	 ecx, DWORD PTR tv86[ebp]
  0008a	03 48 04	 add	 ecx, DWORD PTR [eax+4]
  0008d	8b f4		 mov	 esi, esp
  0008f	ff 15 00 00 00
	00		 call	 DWORD PTR __imp_?rdbuf@?$basic_ios@DU?$char_traits@D@std@@@std@@QBEPAV?$basic_streambuf@DU?$char_traits@D@std@@@2@XZ
  00095	3b f4		 cmp	 esi, esp
  00097	e8 00 00 00 00	 call	 __RTC_CheckEsp
  0009c	89 85 20 ff ff
	ff		 mov	 DWORD PTR tv92[ebp], eax
  000a2	8b 8d 20 ff ff
	ff		 mov	 ecx, DWORD PTR tv92[ebp]
  000a8	8b 11		 mov	 edx, DWORD PTR [ecx]
  000aa	8b f4		 mov	 esi, esp
  000ac	8b 8d 20 ff ff
	ff		 mov	 ecx, DWORD PTR tv92[ebp]
  000b2	8b 42 08	 mov	 eax, DWORD PTR [edx+8]
  000b5	ff d0		 call	 eax
  000b7	3b f4		 cmp	 esi, esp
  000b9	e8 00 00 00 00	 call	 __RTC_CheckEsp
$LN3@Sentry_bas:

; 109  : 			}

  000be	8b 4d f4	 mov	 ecx, DWORD PTR __$EHRec$[ebp]
  000c1	64 89 0d 00 00
	00 00		 mov	 DWORD PTR fs:0, ecx
  000c8	59		 pop	 ecx
  000c9	5f		 pop	 edi
  000ca	5e		 pop	 esi
  000cb	5b		 pop	 ebx
  000cc	81 c4 e0 00 00
	00		 add	 esp, 224		; 000000e0H
  000d2	3b ec		 cmp	 ebp, esp
  000d4	e8 00 00 00 00	 call	 __RTC_CheckEsp
  000d9	8b e5		 mov	 esp, ebp
  000db	5d		 pop	 ebp
  000dc	c3		 ret	 0
_TEXT	ENDS
;	COMDAT text$x
text$x	SEGMENT
__ehhandler$??1_Sentry_base@?$basic_ostream@DU?$char_traits@D@std@@@std@@QAE@XZ:
  00000	8b 54 24 08	 mov	 edx, DWORD PTR [esp+8]
  00004	8d 42 0c	 lea	 eax, DWORD PTR [edx+12]
  00007	8b 8a 1c ff ff
	ff		 mov	 ecx, DWORD PTR [edx-228]
  0000d	33 c8		 xor	 ecx, eax
  0000f	e8 00 00 00 00	 call	 @__security_check_cookie@4
  00014	b8 00 00 00 00	 mov	 eax, OFFSET __ehfuncinfo$??1_Sentry_base@?$basic_ostream@DU?$char_traits@D@std@@@std@@QAE@XZ
  00019	e9 00 00 00 00	 jmp	 ___CxxFrameHandler3
text$x	ENDS
??1_Sentry_base@?$basic_ostream@DU?$char_traits@D@std@@@std@@QAE@XZ ENDP ; std::basic_ostream<char,std::char_traits<char> >::_Sentry_base::~_Sentry_base
; Function compile flags: /Odtp /RTCsu /ZI
; File c:\program files (x86)\microsoft visual studio 14.0\vc\include\ostream
;	COMDAT ??0_Sentry_base@?$basic_ostream@DU?$char_traits@D@std@@@std@@QAE@AAV12@@Z
_TEXT	SEGMENT
tv93 = -212						; size = 4
tv87 = -208						; size = 4
tv73 = -208						; size = 4
_this$ = -8						; size = 4
__Ostr$ = 8						; size = 4
??0_Sentry_base@?$basic_ostream@DU?$char_traits@D@std@@@std@@QAE@AAV12@@Z PROC ; std::basic_ostream<char,std::char_traits<char> >::_Sentry_base::_Sentry_base, COMDAT
; _this$ = ecx

; 100  : 			{	// lock the stream buffer, if there

  00000	55		 push	 ebp
  00001	8b ec		 mov	 ebp, esp
  00003	81 ec d4 00 00
	00		 sub	 esp, 212		; 000000d4H
  00009	53		 push	 ebx
  0000a	56		 push	 esi
  0000b	57		 push	 edi
  0000c	51		 push	 ecx
  0000d	8d bd 2c ff ff
	ff		 lea	 edi, DWORD PTR [ebp-212]
  00013	b9 35 00 00 00	 mov	 ecx, 53			; 00000035H
  00018	b8 cc cc cc cc	 mov	 eax, -858993460		; ccccccccH
  0001d	f3 ab		 rep stosd
  0001f	59		 pop	 ecx
  00020	89 4d f8	 mov	 DWORD PTR _this$[ebp], ecx

; 99   : 			: _Myostr(_Ostr)

  00023	8b 45 f8	 mov	 eax, DWORD PTR _this$[ebp]
  00026	8b 4d 08	 mov	 ecx, DWORD PTR __Ostr$[ebp]
  00029	89 08		 mov	 DWORD PTR [eax], ecx

; 101  : 			if (_Myostr.rdbuf() != 0)

  0002b	8b 45 f8	 mov	 eax, DWORD PTR _this$[ebp]
  0002e	8b 08		 mov	 ecx, DWORD PTR [eax]
  00030	89 8d 30 ff ff
	ff		 mov	 DWORD PTR tv73[ebp], ecx
  00036	8b 95 30 ff ff
	ff		 mov	 edx, DWORD PTR tv73[ebp]
  0003c	8b 02		 mov	 eax, DWORD PTR [edx]
  0003e	8b 8d 30 ff ff
	ff		 mov	 ecx, DWORD PTR tv73[ebp]
  00044	03 48 04	 add	 ecx, DWORD PTR [eax+4]
  00047	8b f4		 mov	 esi, esp
  00049	ff 15 00 00 00
	00		 call	 DWORD PTR __imp_?rdbuf@?$basic_ios@DU?$char_traits@D@std@@@std@@QBEPAV?$basic_streambuf@DU?$char_traits@D@std@@@2@XZ
  0004f	3b f4		 cmp	 esi, esp
  00051	e8 00 00 00 00	 call	 __RTC_CheckEsp
  00056	85 c0		 test	 eax, eax
  00058	74 4d		 je	 SHORT $LN1@Sentry_bas

; 102  : 				_Myostr.rdbuf()->_Lock();

  0005a	8b 45 f8	 mov	 eax, DWORD PTR _this$[ebp]
  0005d	8b 08		 mov	 ecx, DWORD PTR [eax]
  0005f	89 8d 30 ff ff
	ff		 mov	 DWORD PTR tv87[ebp], ecx
  00065	8b 95 30 ff ff
	ff		 mov	 edx, DWORD PTR tv87[ebp]
  0006b	8b 02		 mov	 eax, DWORD PTR [edx]
  0006d	8b 8d 30 ff ff
	ff		 mov	 ecx, DWORD PTR tv87[ebp]
  00073	03 48 04	 add	 ecx, DWORD PTR [eax+4]
  00076	8b f4		 mov	 esi, esp
  00078	ff 15 00 00 00
	00		 call	 DWORD PTR __imp_?rdbuf@?$basic_ios@DU?$char_traits@D@std@@@std@@QBEPAV?$basic_streambuf@DU?$char_traits@D@std@@@2@XZ
  0007e	3b f4		 cmp	 esi, esp
  00080	e8 00 00 00 00	 call	 __RTC_CheckEsp
  00085	89 85 2c ff ff
	ff		 mov	 DWORD PTR tv93[ebp], eax
  0008b	8b 8d 2c ff ff
	ff		 mov	 ecx, DWORD PTR tv93[ebp]
  00091	8b 11		 mov	 edx, DWORD PTR [ecx]
  00093	8b f4		 mov	 esi, esp
  00095	8b 8d 2c ff ff
	ff		 mov	 ecx, DWORD PTR tv93[ebp]
  0009b	8b 42 04	 mov	 eax, DWORD PTR [edx+4]
  0009e	ff d0		 call	 eax
  000a0	3b f4		 cmp	 esi, esp
  000a2	e8 00 00 00 00	 call	 __RTC_CheckEsp
$LN1@Sentry_bas:

; 103  : 			}

  000a7	8b 45 f8	 mov	 eax, DWORD PTR _this$[ebp]
  000aa	5f		 pop	 edi
  000ab	5e		 pop	 esi
  000ac	5b		 pop	 ebx
  000ad	81 c4 d4 00 00
	00		 add	 esp, 212		; 000000d4H
  000b3	3b ec		 cmp	 ebp, esp
  000b5	e8 00 00 00 00	 call	 __RTC_CheckEsp
  000ba	8b e5		 mov	 esp, ebp
  000bc	5d		 pop	 ebp
  000bd	c2 04 00	 ret	 4
??0_Sentry_base@?$basic_ostream@DU?$char_traits@D@std@@@std@@QAE@AAV12@@Z ENDP ; std::basic_ostream<char,std::char_traits<char> >::_Sentry_base::_Sentry_base
_TEXT	ENDS
; Function compile flags: /Odtp /RTCsu /ZI
; File c:\program files (x86)\microsoft visual studio 14.0\vc\include\ostream
;	COMDAT ??$endl@DU?$char_traits@D@std@@@std@@YAAAV?$basic_ostream@DU?$char_traits@D@std@@@0@AAV10@@Z
_TEXT	SEGMENT
__Ostr$ = 8						; size = 4
??$endl@DU?$char_traits@D@std@@@std@@YAAAV?$basic_ostream@DU?$char_traits@D@std@@@0@AAV10@@Z PROC ; std::endl<char,std::char_traits<char> >, COMDAT

; 993  : 	{	// insert newline and flush stream

  00000	55		 push	 ebp
  00001	8b ec		 mov	 ebp, esp
  00003	81 ec c0 00 00
	00		 sub	 esp, 192		; 000000c0H
  00009	53		 push	 ebx
  0000a	56		 push	 esi
  0000b	57		 push	 edi
  0000c	8d bd 40 ff ff
	ff		 lea	 edi, DWORD PTR [ebp-192]
  00012	b9 30 00 00 00	 mov	 ecx, 48			; 00000030H
  00017	b8 cc cc cc cc	 mov	 eax, -858993460		; ccccccccH
  0001c	f3 ab		 rep stosd

; 994  : 	_Ostr.put(_Ostr.widen('\n'));

  0001e	8b f4		 mov	 esi, esp
  00020	6a 0a		 push	 10			; 0000000aH
  00022	8b 45 08	 mov	 eax, DWORD PTR __Ostr$[ebp]
  00025	8b 08		 mov	 ecx, DWORD PTR [eax]
  00027	8b 55 08	 mov	 edx, DWORD PTR __Ostr$[ebp]
  0002a	03 51 04	 add	 edx, DWORD PTR [ecx+4]
  0002d	8b ca		 mov	 ecx, edx
  0002f	ff 15 00 00 00
	00		 call	 DWORD PTR __imp_?widen@?$basic_ios@DU?$char_traits@D@std@@@std@@QBEDD@Z
  00035	3b f4		 cmp	 esi, esp
  00037	e8 00 00 00 00	 call	 __RTC_CheckEsp
  0003c	8b f4		 mov	 esi, esp
  0003e	0f b6 c0	 movzx	 eax, al
  00041	50		 push	 eax
  00042	8b 4d 08	 mov	 ecx, DWORD PTR __Ostr$[ebp]
  00045	ff 15 00 00 00
	00		 call	 DWORD PTR __imp_?put@?$basic_ostream@DU?$char_traits@D@std@@@std@@QAEAAV12@D@Z
  0004b	3b f4		 cmp	 esi, esp
  0004d	e8 00 00 00 00	 call	 __RTC_CheckEsp

; 995  : 	_Ostr.flush();

  00052	8b f4		 mov	 esi, esp
  00054	8b 4d 08	 mov	 ecx, DWORD PTR __Ostr$[ebp]
  00057	ff 15 00 00 00
	00		 call	 DWORD PTR __imp_?flush@?$basic_ostream@DU?$char_traits@D@std@@@std@@QAEAAV12@XZ
  0005d	3b f4		 cmp	 esi, esp
  0005f	e8 00 00 00 00	 call	 __RTC_CheckEsp

; 996  : 	return (_Ostr);

  00064	8b 45 08	 mov	 eax, DWORD PTR __Ostr$[ebp]

; 997  : 	}

  00067	5f		 pop	 edi
  00068	5e		 pop	 esi
  00069	5b		 pop	 ebx
  0006a	81 c4 c0 00 00
	00		 add	 esp, 192		; 000000c0H
  00070	3b ec		 cmp	 ebp, esp
  00072	e8 00 00 00 00	 call	 __RTC_CheckEsp
  00077	8b e5		 mov	 esp, ebp
  00079	5d		 pop	 ebp
  0007a	c3		 ret	 0
??$endl@DU?$char_traits@D@std@@@std@@YAAAV?$basic_ostream@DU?$char_traits@D@std@@@0@AAV10@@Z ENDP ; std::endl<char,std::char_traits<char> >
_TEXT	ENDS
; Function compile flags: /Odtp /RTCsu /ZI
; File c:\program files (x86)\microsoft visual studio 14.0\vc\include\ostream
;	COMDAT ??$?6U?$char_traits@D@std@@@std@@YAAAV?$basic_ostream@DU?$char_traits@D@std@@@0@AAV10@PBD@Z
_TEXT	SEGMENT
tv135 = -352						; size = 8
tv342 = -344						; size = 8
tv290 = -340						; size = 4
tv287 = -340						; size = 8
tv285 = -340						; size = 4
tv328 = -336						; size = 8
tv289 = -336						; size = 4
tv284 = -336						; size = 4
tv286 = -332						; size = 4
tv137 = -332						; size = 4
tv288 = -329						; size = 1
tv283 = -329						; size = 1
$T2 = -324						; size = 4
$T3 = -312						; size = 4
$T4 = -300						; size = 4
$T5 = -288						; size = 4
$T6 = -276						; size = 4
__Ok$ = -72						; size = 8
__Pad$ = -56						; size = 8
__Count$ = -40						; size = 8
__State$ = -24						; size = 4
__$EHRec$ = -16						; size = 16
__Ostr$ = 8						; size = 4
__Val$ = 12						; size = 4
??$?6U?$char_traits@D@std@@@std@@YAAAV?$basic_ostream@DU?$char_traits@D@std@@@0@AAV10@PBD@Z PROC ; std::operator<<<std::char_traits<char> >, COMDAT

; 782  : 	{	// insert NTBS into char stream

  00000	55		 push	 ebp
  00001	8b ec		 mov	 ebp, esp
  00003	6a ff		 push	 -1
  00005	68 00 00 00 00	 push	 __ehhandler$??$?6U?$char_traits@D@std@@@std@@YAAAV?$basic_ostream@DU?$char_traits@D@std@@@0@AAV10@PBD@Z
  0000a	64 a1 00 00 00
	00		 mov	 eax, DWORD PTR fs:0
  00010	50		 push	 eax
  00011	51		 push	 ecx
  00012	81 ec 50 01 00
	00		 sub	 esp, 336		; 00000150H
  00018	53		 push	 ebx
  00019	56		 push	 esi
  0001a	57		 push	 edi
  0001b	8d bd a0 fe ff
	ff		 lea	 edi, DWORD PTR [ebp-352]
  00021	b9 54 00 00 00	 mov	 ecx, 84			; 00000054H
  00026	b8 cc cc cc cc	 mov	 eax, -858993460		; ccccccccH
  0002b	f3 ab		 rep stosd
  0002d	a1 00 00 00 00	 mov	 eax, DWORD PTR ___security_cookie
  00032	33 c5		 xor	 eax, ebp
  00034	50		 push	 eax
  00035	8d 45 f4	 lea	 eax, DWORD PTR __$EHRec$[ebp+4]
  00038	64 a3 00 00 00
	00		 mov	 DWORD PTR fs:0, eax
  0003e	89 65 f0	 mov	 DWORD PTR __$EHRec$[ebp], esp

; 783  : 	typedef char _Elem;
; 784  : 	typedef basic_ostream<_Elem, _Traits> _Myos;
; 785  : 	ios_base::iostate _State = ios_base::goodbit;

  00041	c7 45 e8 00 00
	00 00		 mov	 DWORD PTR __State$[ebp], 0

; 786  : 	streamsize _Count = (streamsize)_Traits::length(_Val);	// may overflow

  00048	8b 45 0c	 mov	 eax, DWORD PTR __Val$[ebp]
  0004b	50		 push	 eax
  0004c	e8 00 00 00 00	 call	 ?length@?$char_traits@D@std@@SAIPBD@Z ; std::char_traits<char>::length
  00051	83 c4 04	 add	 esp, 4
  00054	33 c9		 xor	 ecx, ecx
  00056	89 45 d8	 mov	 DWORD PTR __Count$[ebp], eax
  00059	89 4d dc	 mov	 DWORD PTR __Count$[ebp+4], ecx

; 787  : 	streamsize _Pad = _Ostr.width() <= 0 || _Ostr.width() <= _Count

  0005c	8b 45 08	 mov	 eax, DWORD PTR __Ostr$[ebp]
  0005f	8b 08		 mov	 ecx, DWORD PTR [eax]
  00061	8b 55 08	 mov	 edx, DWORD PTR __Ostr$[ebp]
  00064	03 51 04	 add	 edx, DWORD PTR [ecx+4]
  00067	8b f4		 mov	 esi, esp
  00069	8b ca		 mov	 ecx, edx
  0006b	ff 15 00 00 00
	00		 call	 DWORD PTR __imp_?width@ios_base@std@@QBE_JXZ
  00071	3b f4		 cmp	 esi, esp
  00073	e8 00 00 00 00	 call	 __RTC_CheckEsp
  00078	89 85 b0 fe ff
	ff		 mov	 DWORD PTR tv328[ebp], eax
  0007e	89 95 b4 fe ff
	ff		 mov	 DWORD PTR tv328[ebp+4], edx
  00084	83 bd b4 fe ff
	ff 00		 cmp	 DWORD PTR tv328[ebp+4], 0
  0008b	7c 79		 jl	 SHORT $LN17@operator
  0008d	7f 09		 jg	 SHORT $LN24@operator
  0008f	83 bd b0 fe ff
	ff 00		 cmp	 DWORD PTR tv328[ebp], 0
  00096	76 6e		 jbe	 SHORT $LN17@operator
$LN24@operator:
  00098	8b 45 08	 mov	 eax, DWORD PTR __Ostr$[ebp]
  0009b	8b 08		 mov	 ecx, DWORD PTR [eax]
  0009d	8b 55 08	 mov	 edx, DWORD PTR __Ostr$[ebp]
  000a0	03 51 04	 add	 edx, DWORD PTR [ecx+4]
  000a3	8b f4		 mov	 esi, esp
  000a5	8b ca		 mov	 ecx, edx
  000a7	ff 15 00 00 00
	00		 call	 DWORD PTR __imp_?width@ios_base@std@@QBE_JXZ
  000ad	3b f4		 cmp	 esi, esp
  000af	e8 00 00 00 00	 call	 __RTC_CheckEsp
  000b4	89 85 a8 fe ff
	ff		 mov	 DWORD PTR tv342[ebp], eax
  000ba	89 95 ac fe ff
	ff		 mov	 DWORD PTR tv342[ebp+4], edx
  000c0	8b 85 ac fe ff
	ff		 mov	 eax, DWORD PTR tv342[ebp+4]
  000c6	3b 45 dc	 cmp	 eax, DWORD PTR __Count$[ebp+4]
  000c9	7c 3b		 jl	 SHORT $LN17@operator
  000cb	7f 0b		 jg	 SHORT $LN25@operator
  000cd	8b 8d a8 fe ff
	ff		 mov	 ecx, DWORD PTR tv342[ebp]
  000d3	3b 4d d8	 cmp	 ecx, DWORD PTR __Count$[ebp]
  000d6	76 2e		 jbe	 SHORT $LN17@operator
$LN25@operator:
  000d8	8b 55 08	 mov	 edx, DWORD PTR __Ostr$[ebp]
  000db	8b 02		 mov	 eax, DWORD PTR [edx]
  000dd	8b 4d 08	 mov	 ecx, DWORD PTR __Ostr$[ebp]
  000e0	03 48 04	 add	 ecx, DWORD PTR [eax+4]
  000e3	8b f4		 mov	 esi, esp
  000e5	ff 15 00 00 00
	00		 call	 DWORD PTR __imp_?width@ios_base@std@@QBE_JXZ
  000eb	3b f4		 cmp	 esi, esp
  000ed	e8 00 00 00 00	 call	 __RTC_CheckEsp
  000f2	2b 45 d8	 sub	 eax, DWORD PTR __Count$[ebp]
  000f5	1b 55 dc	 sbb	 edx, DWORD PTR __Count$[ebp+4]
  000f8	89 85 a0 fe ff
	ff		 mov	 DWORD PTR tv135[ebp], eax
  000fe	89 95 a4 fe ff
	ff		 mov	 DWORD PTR tv135[ebp+4], edx
  00104	eb 0b		 jmp	 SHORT $LN18@operator
$LN17@operator:
  00106	0f 57 c0	 xorps	 xmm0, xmm0
  00109	66 0f 13 85 a0
	fe ff ff	 movlpd	 QWORD PTR tv135[ebp], xmm0
$LN18@operator:
  00111	8b 8d a0 fe ff
	ff		 mov	 ecx, DWORD PTR tv135[ebp]
  00117	89 4d c8	 mov	 DWORD PTR __Pad$[ebp], ecx
  0011a	8b 95 a4 fe ff
	ff		 mov	 edx, DWORD PTR tv135[ebp+4]
  00120	89 55 cc	 mov	 DWORD PTR __Pad$[ebp+4], edx

; 788  : 		? 0 : _Ostr.width() - _Count;
; 789  : 	const typename _Myos::sentry _Ok(_Ostr);

  00123	8b 45 08	 mov	 eax, DWORD PTR __Ostr$[ebp]
  00126	50		 push	 eax
  00127	8d 4d b8	 lea	 ecx, DWORD PTR __Ok$[ebp]
  0012a	e8 00 00 00 00	 call	 ??0sentry@?$basic_ostream@DU?$char_traits@D@std@@@std@@QAE@AAV12@@Z ; std::basic_ostream<char,std::char_traits<char> >::sentry::sentry
  0012f	c7 45 fc 00 00
	00 00		 mov	 DWORD PTR __$EHRec$[ebp+12], 0

; 790  : 
; 791  : 	if (!_Ok)

  00136	8d 4d b8	 lea	 ecx, DWORD PTR __Ok$[ebp]
  00139	e8 00 00 00 00	 call	 ??Bsentry@?$basic_ostream@DU?$char_traits@D@std@@@std@@QBE_NXZ ; std::basic_ostream<char,std::char_traits<char> >::sentry::operator bool
  0013e	0f b6 c0	 movzx	 eax, al
  00141	85 c0		 test	 eax, eax
  00143	75 0e		 jne	 SHORT $LN8@operator

; 792  : 		_State |= ios_base::badbit;

  00145	8b 45 e8	 mov	 eax, DWORD PTR __State$[ebp]
  00148	83 c8 04	 or	 eax, 4
  0014b	89 45 e8	 mov	 DWORD PTR __State$[ebp], eax

; 793  : 	else

  0014e	e9 ba 02 00 00	 jmp	 $LN9@operator
$LN8@operator:

; 794  : 		{	// state okay, insert
; 795  : 		_TRY_IO_BEGIN

  00153	c6 45 fc 01	 mov	 BYTE PTR __$EHRec$[ebp+12], 1

; 796  : 		if ((_Ostr.flags() & ios_base::adjustfield) != ios_base::left)

  00157	8b 45 08	 mov	 eax, DWORD PTR __Ostr$[ebp]
  0015a	8b 08		 mov	 ecx, DWORD PTR [eax]
  0015c	8b 55 08	 mov	 edx, DWORD PTR __Ostr$[ebp]
  0015f	03 51 04	 add	 edx, DWORD PTR [ecx+4]
  00162	8b f4		 mov	 esi, esp
  00164	8b ca		 mov	 ecx, edx
  00166	ff 15 00 00 00
	00		 call	 DWORD PTR __imp_?flags@ios_base@std@@QBEHXZ
  0016c	3b f4		 cmp	 esi, esp
  0016e	e8 00 00 00 00	 call	 __RTC_CheckEsp
  00173	89 85 b4 fe ff
	ff		 mov	 DWORD PTR tv137[ebp], eax
  00179	8b 85 b4 fe ff
	ff		 mov	 eax, DWORD PTR tv137[ebp]
  0017f	25 c0 01 00 00	 and	 eax, 448		; 000001c0H
  00184	83 f8 40	 cmp	 eax, 64			; 00000040H
  00187	0f 84 d5 00 00
	00		 je	 $LN11@operator

; 797  : 			for (; 0 < _Pad; --_Pad)	// pad on left

  0018d	eb 12		 jmp	 SHORT $LN4@operator
$LN2@operator:
  0018f	8b 45 c8	 mov	 eax, DWORD PTR __Pad$[ebp]
  00192	83 e8 01	 sub	 eax, 1
  00195	8b 4d cc	 mov	 ecx, DWORD PTR __Pad$[ebp+4]
  00198	83 d9 00	 sbb	 ecx, 0
  0019b	89 45 c8	 mov	 DWORD PTR __Pad$[ebp], eax
  0019e	89 4d cc	 mov	 DWORD PTR __Pad$[ebp+4], ecx
$LN4@operator:
  001a1	83 7d cc 00	 cmp	 DWORD PTR __Pad$[ebp+4], 0
  001a5	0f 8c b7 00 00
	00		 jl	 $LN11@operator
  001ab	7f 0a		 jg	 SHORT $LN26@operator
  001ad	83 7d c8 00	 cmp	 DWORD PTR __Pad$[ebp], 0
  001b1	0f 86 ab 00 00
	00		 jbe	 $LN11@operator
$LN26@operator:

; 798  : 				if (_Traits::eq_int_type(_Traits::eof(),

  001b7	8b 45 08	 mov	 eax, DWORD PTR __Ostr$[ebp]
  001ba	8b 08		 mov	 ecx, DWORD PTR [eax]
  001bc	8b 55 08	 mov	 edx, DWORD PTR __Ostr$[ebp]
  001bf	03 51 04	 add	 edx, DWORD PTR [ecx+4]
  001c2	8b f4		 mov	 esi, esp
  001c4	8b ca		 mov	 ecx, edx
  001c6	ff 15 00 00 00
	00		 call	 DWORD PTR __imp_?fill@?$basic_ios@DU?$char_traits@D@std@@@std@@QBEDXZ
  001cc	3b f4		 cmp	 esi, esp
  001ce	e8 00 00 00 00	 call	 __RTC_CheckEsp
  001d3	88 85 b7 fe ff
	ff		 mov	 BYTE PTR tv283[ebp], al
  001d9	8b 45 08	 mov	 eax, DWORD PTR __Ostr$[ebp]
  001dc	8b 08		 mov	 ecx, DWORD PTR [eax]
  001de	8b 55 08	 mov	 edx, DWORD PTR __Ostr$[ebp]
  001e1	03 51 04	 add	 edx, DWORD PTR [ecx+4]
  001e4	8b f4		 mov	 esi, esp
  001e6	8b ca		 mov	 ecx, edx
  001e8	ff 15 00 00 00
	00		 call	 DWORD PTR __imp_?rdbuf@?$basic_ios@DU?$char_traits@D@std@@@std@@QBEPAV?$basic_streambuf@DU?$char_traits@D@std@@@2@XZ
  001ee	3b f4		 cmp	 esi, esp
  001f0	e8 00 00 00 00	 call	 __RTC_CheckEsp
  001f5	89 85 b0 fe ff
	ff		 mov	 DWORD PTR tv284[ebp], eax
  001fb	8b f4		 mov	 esi, esp
  001fd	0f b6 85 b7 fe
	ff ff		 movzx	 eax, BYTE PTR tv283[ebp]
  00204	50		 push	 eax
  00205	8b 8d b0 fe ff
	ff		 mov	 ecx, DWORD PTR tv284[ebp]
  0020b	ff 15 00 00 00
	00		 call	 DWORD PTR __imp_?sputc@?$basic_streambuf@DU?$char_traits@D@std@@@std@@QAEHD@Z
  00211	3b f4		 cmp	 esi, esp
  00213	e8 00 00 00 00	 call	 __RTC_CheckEsp
  00218	89 85 ac fe ff
	ff		 mov	 DWORD PTR tv285[ebp], eax
  0021e	8b 8d ac fe ff
	ff		 mov	 ecx, DWORD PTR tv285[ebp]
  00224	89 8d ec fe ff
	ff		 mov	 DWORD PTR $T6[ebp], ecx
  0022a	e8 00 00 00 00	 call	 ?eof@?$char_traits@D@std@@SAHXZ ; std::char_traits<char>::eof
  0022f	89 85 e0 fe ff
	ff		 mov	 DWORD PTR $T5[ebp], eax
  00235	8d 95 ec fe ff
	ff		 lea	 edx, DWORD PTR $T6[ebp]
  0023b	52		 push	 edx
  0023c	8d 85 e0 fe ff
	ff		 lea	 eax, DWORD PTR $T5[ebp]
  00242	50		 push	 eax
  00243	e8 00 00 00 00	 call	 ?eq_int_type@?$char_traits@D@std@@SA_NABH0@Z ; std::char_traits<char>::eq_int_type
  00248	83 c4 08	 add	 esp, 8
  0024b	0f b6 c8	 movzx	 ecx, al
  0024e	85 c9		 test	 ecx, ecx
  00250	74 0b		 je	 SHORT $LN12@operator

; 799  : 					_Ostr.rdbuf()->sputc(_Ostr.fill())))
; 800  : 					{	// insertion failed, quit
; 801  : 					_State |= ios_base::badbit;

  00252	8b 45 e8	 mov	 eax, DWORD PTR __State$[ebp]
  00255	83 c8 04	 or	 eax, 4
  00258	89 45 e8	 mov	 DWORD PTR __State$[ebp], eax

; 802  : 					break;

  0025b	eb 05		 jmp	 SHORT $LN11@operator
$LN12@operator:

; 803  : 					}
; 804  : 
; 805  : 		if (_State == ios_base::goodbit

  0025d	e9 2d ff ff ff	 jmp	 $LN2@operator
$LN11@operator:

; 806  : 			&& _Ostr.rdbuf()->sputn(_Val, _Count) != _Count)

  00262	83 7d e8 00	 cmp	 DWORD PTR __State$[ebp], 0
  00266	75 6e		 jne	 SHORT $LN13@operator
  00268	8b 45 08	 mov	 eax, DWORD PTR __Ostr$[ebp]
  0026b	8b 08		 mov	 ecx, DWORD PTR [eax]
  0026d	8b 55 08	 mov	 edx, DWORD PTR __Ostr$[ebp]
  00270	03 51 04	 add	 edx, DWORD PTR [ecx+4]
  00273	8b f4		 mov	 esi, esp
  00275	8b ca		 mov	 ecx, edx
  00277	ff 15 00 00 00
	00		 call	 DWORD PTR __imp_?rdbuf@?$basic_ios@DU?$char_traits@D@std@@@std@@QBEPAV?$basic_streambuf@DU?$char_traits@D@std@@@2@XZ
  0027d	3b f4		 cmp	 esi, esp
  0027f	e8 00 00 00 00	 call	 __RTC_CheckEsp
  00284	89 85 b4 fe ff
	ff		 mov	 DWORD PTR tv286[ebp], eax
  0028a	8b f4		 mov	 esi, esp
  0028c	8b 45 dc	 mov	 eax, DWORD PTR __Count$[ebp+4]
  0028f	50		 push	 eax
  00290	8b 4d d8	 mov	 ecx, DWORD PTR __Count$[ebp]
  00293	51		 push	 ecx
  00294	8b 55 0c	 mov	 edx, DWORD PTR __Val$[ebp]
  00297	52		 push	 edx
  00298	8b 8d b4 fe ff
	ff		 mov	 ecx, DWORD PTR tv286[ebp]
  0029e	ff 15 00 00 00
	00		 call	 DWORD PTR __imp_?sputn@?$basic_streambuf@DU?$char_traits@D@std@@@std@@QAE_JPBD_J@Z
  002a4	3b f4		 cmp	 esi, esp
  002a6	e8 00 00 00 00	 call	 __RTC_CheckEsp
  002ab	89 85 ac fe ff
	ff		 mov	 DWORD PTR tv287[ebp], eax
  002b1	89 95 b0 fe ff
	ff		 mov	 DWORD PTR tv287[ebp+4], edx
  002b7	8b 85 ac fe ff
	ff		 mov	 eax, DWORD PTR tv287[ebp]
  002bd	3b 45 d8	 cmp	 eax, DWORD PTR __Count$[ebp]
  002c0	75 0b		 jne	 SHORT $LN27@operator
  002c2	8b 8d b0 fe ff
	ff		 mov	 ecx, DWORD PTR tv287[ebp+4]
  002c8	3b 4d dc	 cmp	 ecx, DWORD PTR __Count$[ebp+4]
  002cb	74 09		 je	 SHORT $LN13@operator
$LN27@operator:

; 807  : 			_State |= ios_base::badbit;

  002cd	8b 45 e8	 mov	 eax, DWORD PTR __State$[ebp]
  002d0	83 c8 04	 or	 eax, 4
  002d3	89 45 e8	 mov	 DWORD PTR __State$[ebp], eax
$LN13@operator:

; 808  : 
; 809  : 		if (_State == ios_base::goodbit)

  002d6	83 7d e8 00	 cmp	 DWORD PTR __State$[ebp], 0
  002da	0f 85 d5 00 00
	00		 jne	 $LN14@operator

; 810  : 			for (; 0 < _Pad; --_Pad)	// pad on right

  002e0	eb 12		 jmp	 SHORT $LN7@operator
$LN5@operator:
  002e2	8b 45 c8	 mov	 eax, DWORD PTR __Pad$[ebp]
  002e5	83 e8 01	 sub	 eax, 1
  002e8	8b 4d cc	 mov	 ecx, DWORD PTR __Pad$[ebp+4]
  002eb	83 d9 00	 sbb	 ecx, 0
  002ee	89 45 c8	 mov	 DWORD PTR __Pad$[ebp], eax
  002f1	89 4d cc	 mov	 DWORD PTR __Pad$[ebp+4], ecx
$LN7@operator:
  002f4	83 7d cc 00	 cmp	 DWORD PTR __Pad$[ebp+4], 0
  002f8	0f 8c b7 00 00
	00		 jl	 $LN14@operator
  002fe	7f 0a		 jg	 SHORT $LN28@operator
  00300	83 7d c8 00	 cmp	 DWORD PTR __Pad$[ebp], 0
  00304	0f 86 ab 00 00
	00		 jbe	 $LN14@operator
$LN28@operator:

; 811  : 				if (_Traits::eq_int_type(_Traits::eof(),

  0030a	8b 45 08	 mov	 eax, DWORD PTR __Ostr$[ebp]
  0030d	8b 08		 mov	 ecx, DWORD PTR [eax]
  0030f	8b 55 08	 mov	 edx, DWORD PTR __Ostr$[ebp]
  00312	03 51 04	 add	 edx, DWORD PTR [ecx+4]
  00315	8b f4		 mov	 esi, esp
  00317	8b ca		 mov	 ecx, edx
  00319	ff 15 00 00 00
	00		 call	 DWORD PTR __imp_?fill@?$basic_ios@DU?$char_traits@D@std@@@std@@QBEDXZ
  0031f	3b f4		 cmp	 esi, esp
  00321	e8 00 00 00 00	 call	 __RTC_CheckEsp
  00326	88 85 b7 fe ff
	ff		 mov	 BYTE PTR tv288[ebp], al
  0032c	8b 45 08	 mov	 eax, DWORD PTR __Ostr$[ebp]
  0032f	8b 08		 mov	 ecx, DWORD PTR [eax]
  00331	8b 55 08	 mov	 edx, DWORD PTR __Ostr$[ebp]
  00334	03 51 04	 add	 edx, DWORD PTR [ecx+4]
  00337	8b f4		 mov	 esi, esp
  00339	8b ca		 mov	 ecx, edx
  0033b	ff 15 00 00 00
	00		 call	 DWORD PTR __imp_?rdbuf@?$basic_ios@DU?$char_traits@D@std@@@std@@QBEPAV?$basic_streambuf@DU?$char_traits@D@std@@@2@XZ
  00341	3b f4		 cmp	 esi, esp
  00343	e8 00 00 00 00	 call	 __RTC_CheckEsp
  00348	89 85 b0 fe ff
	ff		 mov	 DWORD PTR tv289[ebp], eax
  0034e	8b f4		 mov	 esi, esp
  00350	0f b6 85 b7 fe
	ff ff		 movzx	 eax, BYTE PTR tv288[ebp]
  00357	50		 push	 eax
  00358	8b 8d b0 fe ff
	ff		 mov	 ecx, DWORD PTR tv289[ebp]
  0035e	ff 15 00 00 00
	00		 call	 DWORD PTR __imp_?sputc@?$basic_streambuf@DU?$char_traits@D@std@@@std@@QAEHD@Z
  00364	3b f4		 cmp	 esi, esp
  00366	e8 00 00 00 00	 call	 __RTC_CheckEsp
  0036b	89 85 ac fe ff
	ff		 mov	 DWORD PTR tv290[ebp], eax
  00371	8b 8d ac fe ff
	ff		 mov	 ecx, DWORD PTR tv290[ebp]
  00377	89 8d d4 fe ff
	ff		 mov	 DWORD PTR $T4[ebp], ecx
  0037d	e8 00 00 00 00	 call	 ?eof@?$char_traits@D@std@@SAHXZ ; std::char_traits<char>::eof
  00382	89 85 c8 fe ff
	ff		 mov	 DWORD PTR $T3[ebp], eax
  00388	8d 95 d4 fe ff
	ff		 lea	 edx, DWORD PTR $T4[ebp]
  0038e	52		 push	 edx
  0038f	8d 85 c8 fe ff
	ff		 lea	 eax, DWORD PTR $T3[ebp]
  00395	50		 push	 eax
  00396	e8 00 00 00 00	 call	 ?eq_int_type@?$char_traits@D@std@@SA_NABH0@Z ; std::char_traits<char>::eq_int_type
  0039b	83 c4 08	 add	 esp, 8
  0039e	0f b6 c8	 movzx	 ecx, al
  003a1	85 c9		 test	 ecx, ecx
  003a3	74 0b		 je	 SHORT $LN15@operator

; 812  : 					_Ostr.rdbuf()->sputc(_Ostr.fill())))
; 813  : 					{	// insertion failed, quit
; 814  : 					_State |= ios_base::badbit;

  003a5	8b 45 e8	 mov	 eax, DWORD PTR __State$[ebp]
  003a8	83 c8 04	 or	 eax, 4
  003ab	89 45 e8	 mov	 DWORD PTR __State$[ebp], eax

; 815  : 					break;

  003ae	eb 05		 jmp	 SHORT $LN14@operator
$LN15@operator:

; 816  : 					}

  003b0	e9 2d ff ff ff	 jmp	 $LN5@operator
$LN14@operator:

; 817  : 		_Ostr.width(0);

  003b5	8b f4		 mov	 esi, esp
  003b7	6a 00		 push	 0
  003b9	6a 00		 push	 0
  003bb	8b 45 08	 mov	 eax, DWORD PTR __Ostr$[ebp]
  003be	8b 08		 mov	 ecx, DWORD PTR [eax]
  003c0	8b 55 08	 mov	 edx, DWORD PTR __Ostr$[ebp]
  003c3	03 51 04	 add	 edx, DWORD PTR [ecx+4]
  003c6	8b ca		 mov	 ecx, edx
  003c8	ff 15 00 00 00
	00		 call	 DWORD PTR __imp_?width@ios_base@std@@QAE_J_J@Z
  003ce	3b f4		 cmp	 esi, esp
  003d0	e8 00 00 00 00	 call	 __RTC_CheckEsp
  003d5	eb 26		 jmp	 SHORT $LN19@operator
__catch$??$?6U?$char_traits@D@std@@@std@@YAAAV?$basic_ostream@DU?$char_traits@D@std@@@0@AAV10@PBD@Z$0:

; 818  : 		_CATCH_IO_(_Ostr)

  003d7	8b f4		 mov	 esi, esp
  003d9	6a 01		 push	 1
  003db	6a 04		 push	 4
  003dd	8b 45 08	 mov	 eax, DWORD PTR __Ostr$[ebp]
  003e0	8b 08		 mov	 ecx, DWORD PTR [eax]
  003e2	8b 55 08	 mov	 edx, DWORD PTR __Ostr$[ebp]
  003e5	03 51 04	 add	 edx, DWORD PTR [ecx+4]
  003e8	8b ca		 mov	 ecx, edx
  003ea	ff 15 00 00 00
	00		 call	 DWORD PTR __imp_?setstate@?$basic_ios@DU?$char_traits@D@std@@@std@@QAEXH_N@Z
  003f0	3b f4		 cmp	 esi, esp
  003f2	e8 00 00 00 00	 call	 __RTC_CheckEsp
  003f7	b8 00 00 00 00	 mov	 eax, $LN23@operator
  003fc	c3		 ret	 0
$LN19@operator:
  003fd	c7 45 fc 00 00
	00 00		 mov	 DWORD PTR __$EHRec$[ebp+12], 0
  00404	eb 07		 jmp	 SHORT $LN9@operator
$LN23@operator:
  00406	c7 45 fc 00 00
	00 00		 mov	 DWORD PTR __$EHRec$[ebp+12], 0
$LN9@operator:

; 819  : 		}
; 820  : 
; 821  : 	_Ostr.setstate(_State);

  0040d	8b f4		 mov	 esi, esp
  0040f	6a 00		 push	 0
  00411	8b 45 e8	 mov	 eax, DWORD PTR __State$[ebp]
  00414	50		 push	 eax
  00415	8b 4d 08	 mov	 ecx, DWORD PTR __Ostr$[ebp]
  00418	8b 11		 mov	 edx, DWORD PTR [ecx]
  0041a	8b 4d 08	 mov	 ecx, DWORD PTR __Ostr$[ebp]
  0041d	03 4a 04	 add	 ecx, DWORD PTR [edx+4]
  00420	ff 15 00 00 00
	00		 call	 DWORD PTR __imp_?setstate@?$basic_ios@DU?$char_traits@D@std@@@std@@QAEXH_N@Z
  00426	3b f4		 cmp	 esi, esp
  00428	e8 00 00 00 00	 call	 __RTC_CheckEsp

; 822  : 	return (_Ostr);

  0042d	8b 45 08	 mov	 eax, DWORD PTR __Ostr$[ebp]
  00430	89 85 bc fe ff
	ff		 mov	 DWORD PTR $T2[ebp], eax
  00436	c7 45 fc ff ff
	ff ff		 mov	 DWORD PTR __$EHRec$[ebp+12], -1
  0043d	8d 4d b8	 lea	 ecx, DWORD PTR __Ok$[ebp]
  00440	e8 00 00 00 00	 call	 ??1sentry@?$basic_ostream@DU?$char_traits@D@std@@@std@@QAE@XZ ; std::basic_ostream<char,std::char_traits<char> >::sentry::~sentry
  00445	8b 85 bc fe ff
	ff		 mov	 eax, DWORD PTR $T2[ebp]

; 823  : 	}

  0044b	52		 push	 edx
  0044c	8b cd		 mov	 ecx, ebp
  0044e	50		 push	 eax
  0044f	8d 15 00 00 00
	00		 lea	 edx, DWORD PTR $LN32@operator
  00455	e8 00 00 00 00	 call	 @_RTC_CheckStackVars@8
  0045a	58		 pop	 eax
  0045b	5a		 pop	 edx
  0045c	8b 4d f4	 mov	 ecx, DWORD PTR __$EHRec$[ebp+4]
  0045f	64 89 0d 00 00
	00 00		 mov	 DWORD PTR fs:0, ecx
  00466	59		 pop	 ecx
  00467	5f		 pop	 edi
  00468	5e		 pop	 esi
  00469	5b		 pop	 ebx
  0046a	81 c4 60 01 00
	00		 add	 esp, 352		; 00000160H
  00470	3b ec		 cmp	 ebp, esp
  00472	e8 00 00 00 00	 call	 __RTC_CheckEsp
  00477	8b e5		 mov	 esp, ebp
  00479	5d		 pop	 ebp
  0047a	c3		 ret	 0
  0047b	90		 npad	 1
$LN32@operator:
  0047c	01 00 00 00	 DD	 1
  00480	00 00 00 00	 DD	 $LN31@operator
$LN31@operator:
  00484	b8 ff ff ff	 DD	 -72			; ffffffb8H
  00488	08 00 00 00	 DD	 8
  0048c	00 00 00 00	 DD	 $LN29@operator
$LN29@operator:
  00490	5f		 DB	 95			; 0000005fH
  00491	4f		 DB	 79			; 0000004fH
  00492	6b		 DB	 107			; 0000006bH
  00493	00		 DB	 0
_TEXT	ENDS
;	COMDAT text$x
text$x	SEGMENT
__unwindfunclet$??$?6U?$char_traits@D@std@@@std@@YAAAV?$basic_ostream@DU?$char_traits@D@std@@@0@AAV10@PBD@Z$2:
  00000	8d 4d b8	 lea	 ecx, DWORD PTR __Ok$[ebp]
  00003	e9 00 00 00 00	 jmp	 ??1sentry@?$basic_ostream@DU?$char_traits@D@std@@@std@@QAE@XZ ; std::basic_ostream<char,std::char_traits<char> >::sentry::~sentry
__ehhandler$??$?6U?$char_traits@D@std@@@std@@YAAAV?$basic_ostream@DU?$char_traits@D@std@@@0@AAV10@PBD@Z:
  00008	8b 54 24 08	 mov	 edx, DWORD PTR [esp+8]
  0000c	8d 42 0c	 lea	 eax, DWORD PTR [edx+12]
  0000f	8b 8a 9c fe ff
	ff		 mov	 ecx, DWORD PTR [edx-356]
  00015	33 c8		 xor	 ecx, eax
  00017	e8 00 00 00 00	 call	 @__security_check_cookie@4
  0001c	b8 00 00 00 00	 mov	 eax, OFFSET __ehfuncinfo$??$?6U?$char_traits@D@std@@@std@@YAAAV?$basic_ostream@DU?$char_traits@D@std@@@0@AAV10@PBD@Z
  00021	e9 00 00 00 00	 jmp	 ___CxxFrameHandler3
text$x	ENDS
??$?6U?$char_traits@D@std@@@std@@YAAAV?$basic_ostream@DU?$char_traits@D@std@@@0@AAV10@PBD@Z ENDP ; std::operator<<<std::char_traits<char> >
; Function compile flags: /Odtp /RTCsu /ZI
;	COMDAT ??_Ginvalid_argument@std@@UAEPAXI@Z
_TEXT	SEGMENT
_this$ = -8						; size = 4
___flags$ = 8						; size = 4
??_Ginvalid_argument@std@@UAEPAXI@Z PROC		; std::invalid_argument::`scalar deleting destructor', COMDAT
; _this$ = ecx
  00000	55		 push	 ebp
  00001	8b ec		 mov	 ebp, esp
  00003	81 ec cc 00 00
	00		 sub	 esp, 204		; 000000ccH
  00009	53		 push	 ebx
  0000a	56		 push	 esi
  0000b	57		 push	 edi
  0000c	51		 push	 ecx
  0000d	8d bd 34 ff ff
	ff		 lea	 edi, DWORD PTR [ebp-204]
  00013	b9 33 00 00 00	 mov	 ecx, 51			; 00000033H
  00018	b8 cc cc cc cc	 mov	 eax, -858993460		; ccccccccH
  0001d	f3 ab		 rep stosd
  0001f	59		 pop	 ecx
  00020	89 4d f8	 mov	 DWORD PTR _this$[ebp], ecx
  00023	8b 4d f8	 mov	 ecx, DWORD PTR _this$[ebp]
  00026	e8 00 00 00 00	 call	 ??1invalid_argument@std@@UAE@XZ
  0002b	8b 45 08	 mov	 eax, DWORD PTR ___flags$[ebp]
  0002e	83 e0 01	 and	 eax, 1
  00031	74 0e		 je	 SHORT $LN2@scalar
  00033	6a 0c		 push	 12			; 0000000cH
  00035	8b 45 f8	 mov	 eax, DWORD PTR _this$[ebp]
  00038	50		 push	 eax
  00039	e8 00 00 00 00	 call	 ??3@YAXPAXI@Z		; operator delete
  0003e	83 c4 08	 add	 esp, 8
$LN2@scalar:
  00041	8b 45 f8	 mov	 eax, DWORD PTR _this$[ebp]
  00044	5f		 pop	 edi
  00045	5e		 pop	 esi
  00046	5b		 pop	 ebx
  00047	81 c4 cc 00 00
	00		 add	 esp, 204		; 000000ccH
  0004d	3b ec		 cmp	 ebp, esp
  0004f	e8 00 00 00 00	 call	 __RTC_CheckEsp
  00054	8b e5		 mov	 esp, ebp
  00056	5d		 pop	 ebp
  00057	c2 04 00	 ret	 4
??_Ginvalid_argument@std@@UAEPAXI@Z ENDP		; std::invalid_argument::`scalar deleting destructor'
_TEXT	ENDS
; Function compile flags: /Odtp /RTCsu /ZI
;	COMDAT ??0invalid_argument@std@@QAE@ABV01@@Z
_TEXT	SEGMENT
_this$ = -8						; size = 4
___that$ = 8						; size = 4
??0invalid_argument@std@@QAE@ABV01@@Z PROC		; std::invalid_argument::invalid_argument, COMDAT
; _this$ = ecx
  00000	55		 push	 ebp
  00001	8b ec		 mov	 ebp, esp
  00003	81 ec cc 00 00
	00		 sub	 esp, 204		; 000000ccH
  00009	53		 push	 ebx
  0000a	56		 push	 esi
  0000b	57		 push	 edi
  0000c	51		 push	 ecx
  0000d	8d bd 34 ff ff
	ff		 lea	 edi, DWORD PTR [ebp-204]
  00013	b9 33 00 00 00	 mov	 ecx, 51			; 00000033H
  00018	b8 cc cc cc cc	 mov	 eax, -858993460		; ccccccccH
  0001d	f3 ab		 rep stosd
  0001f	59		 pop	 ecx
  00020	89 4d f8	 mov	 DWORD PTR _this$[ebp], ecx
  00023	8b 45 08	 mov	 eax, DWORD PTR ___that$[ebp]
  00026	50		 push	 eax
  00027	8b 4d f8	 mov	 ecx, DWORD PTR _this$[ebp]
  0002a	e8 00 00 00 00	 call	 ??0logic_error@std@@QAE@ABV01@@Z
  0002f	8b 45 f8	 mov	 eax, DWORD PTR _this$[ebp]
  00032	c7 00 00 00 00
	00		 mov	 DWORD PTR [eax], OFFSET ??_7invalid_argument@std@@6B@
  00038	8b 45 f8	 mov	 eax, DWORD PTR _this$[ebp]
  0003b	5f		 pop	 edi
  0003c	5e		 pop	 esi
  0003d	5b		 pop	 ebx
  0003e	81 c4 cc 00 00
	00		 add	 esp, 204		; 000000ccH
  00044	3b ec		 cmp	 ebp, esp
  00046	e8 00 00 00 00	 call	 __RTC_CheckEsp
  0004b	8b e5		 mov	 esp, ebp
  0004d	5d		 pop	 ebp
  0004e	c2 04 00	 ret	 4
??0invalid_argument@std@@QAE@ABV01@@Z ENDP		; std::invalid_argument::invalid_argument
_TEXT	ENDS
; Function compile flags: /Odtp /RTCsu /ZI
;	COMDAT ??1invalid_argument@std@@UAE@XZ
_TEXT	SEGMENT
_this$ = -8						; size = 4
??1invalid_argument@std@@UAE@XZ PROC			; std::invalid_argument::~invalid_argument, COMDAT
; _this$ = ecx
  00000	55		 push	 ebp
  00001	8b ec		 mov	 ebp, esp
  00003	81 ec cc 00 00
	00		 sub	 esp, 204		; 000000ccH
  00009	53		 push	 ebx
  0000a	56		 push	 esi
  0000b	57		 push	 edi
  0000c	51		 push	 ecx
  0000d	8d bd 34 ff ff
	ff		 lea	 edi, DWORD PTR [ebp-204]
  00013	b9 33 00 00 00	 mov	 ecx, 51			; 00000033H
  00018	b8 cc cc cc cc	 mov	 eax, -858993460		; ccccccccH
  0001d	f3 ab		 rep stosd
  0001f	59		 pop	 ecx
  00020	89 4d f8	 mov	 DWORD PTR _this$[ebp], ecx
  00023	8b 4d f8	 mov	 ecx, DWORD PTR _this$[ebp]
  00026	e8 00 00 00 00	 call	 ??1logic_error@std@@UAE@XZ
  0002b	5f		 pop	 edi
  0002c	5e		 pop	 esi
  0002d	5b		 pop	 ebx
  0002e	81 c4 cc 00 00
	00		 add	 esp, 204		; 000000ccH
  00034	3b ec		 cmp	 ebp, esp
  00036	e8 00 00 00 00	 call	 __RTC_CheckEsp
  0003b	8b e5		 mov	 esp, ebp
  0003d	5d		 pop	 ebp
  0003e	c3		 ret	 0
??1invalid_argument@std@@UAE@XZ ENDP			; std::invalid_argument::~invalid_argument
_TEXT	ENDS
; Function compile flags: /Odtp /RTCsu /ZI
; File c:\program files (x86)\microsoft visual studio 14.0\vc\include\stdexcept
;	COMDAT ??0invalid_argument@std@@QAE@PBD@Z
_TEXT	SEGMENT
_this$ = -8						; size = 4
__Message$ = 8						; size = 4
??0invalid_argument@std@@QAE@PBD@Z PROC			; std::invalid_argument::invalid_argument, COMDAT
; _this$ = ecx

; 94   : 		{	// construct from message string

  00000	55		 push	 ebp
  00001	8b ec		 mov	 ebp, esp
  00003	81 ec cc 00 00
	00		 sub	 esp, 204		; 000000ccH
  00009	53		 push	 ebx
  0000a	56		 push	 esi
  0000b	57		 push	 edi
  0000c	51		 push	 ecx
  0000d	8d bd 34 ff ff
	ff		 lea	 edi, DWORD PTR [ebp-204]
  00013	b9 33 00 00 00	 mov	 ecx, 51			; 00000033H
  00018	b8 cc cc cc cc	 mov	 eax, -858993460		; ccccccccH
  0001d	f3 ab		 rep stosd
  0001f	59		 pop	 ecx
  00020	89 4d f8	 mov	 DWORD PTR _this$[ebp], ecx

; 93   : 		: _Mybase(_Message)

  00023	8b 45 08	 mov	 eax, DWORD PTR __Message$[ebp]
  00026	50		 push	 eax
  00027	8b 4d f8	 mov	 ecx, DWORD PTR _this$[ebp]
  0002a	e8 00 00 00 00	 call	 ??0logic_error@std@@QAE@PBD@Z ; std::logic_error::logic_error

; 94   : 		{	// construct from message string

  0002f	8b 45 f8	 mov	 eax, DWORD PTR _this$[ebp]
  00032	c7 00 00 00 00
	00		 mov	 DWORD PTR [eax], OFFSET ??_7invalid_argument@std@@6B@

; 95   : 		}

  00038	8b 45 f8	 mov	 eax, DWORD PTR _this$[ebp]
  0003b	5f		 pop	 edi
  0003c	5e		 pop	 esi
  0003d	5b		 pop	 ebx
  0003e	81 c4 cc 00 00
	00		 add	 esp, 204		; 000000ccH
  00044	3b ec		 cmp	 ebp, esp
  00046	e8 00 00 00 00	 call	 __RTC_CheckEsp
  0004b	8b e5		 mov	 esp, ebp
  0004d	5d		 pop	 ebp
  0004e	c2 04 00	 ret	 4
??0invalid_argument@std@@QAE@PBD@Z ENDP			; std::invalid_argument::invalid_argument
_TEXT	ENDS
; Function compile flags: /Odtp /RTCsu /ZI
;	COMDAT ??_Glogic_error@std@@UAEPAXI@Z
_TEXT	SEGMENT
_this$ = -8						; size = 4
___flags$ = 8						; size = 4
??_Glogic_error@std@@UAEPAXI@Z PROC			; std::logic_error::`scalar deleting destructor', COMDAT
; _this$ = ecx
  00000	55		 push	 ebp
  00001	8b ec		 mov	 ebp, esp
  00003	81 ec cc 00 00
	00		 sub	 esp, 204		; 000000ccH
  00009	53		 push	 ebx
  0000a	56		 push	 esi
  0000b	57		 push	 edi
  0000c	51		 push	 ecx
  0000d	8d bd 34 ff ff
	ff		 lea	 edi, DWORD PTR [ebp-204]
  00013	b9 33 00 00 00	 mov	 ecx, 51			; 00000033H
  00018	b8 cc cc cc cc	 mov	 eax, -858993460		; ccccccccH
  0001d	f3 ab		 rep stosd
  0001f	59		 pop	 ecx
  00020	89 4d f8	 mov	 DWORD PTR _this$[ebp], ecx
  00023	8b 4d f8	 mov	 ecx, DWORD PTR _this$[ebp]
  00026	e8 00 00 00 00	 call	 ??1logic_error@std@@UAE@XZ
  0002b	8b 45 08	 mov	 eax, DWORD PTR ___flags$[ebp]
  0002e	83 e0 01	 and	 eax, 1
  00031	74 0e		 je	 SHORT $LN2@scalar
  00033	6a 0c		 push	 12			; 0000000cH
  00035	8b 45 f8	 mov	 eax, DWORD PTR _this$[ebp]
  00038	50		 push	 eax
  00039	e8 00 00 00 00	 call	 ??3@YAXPAXI@Z		; operator delete
  0003e	83 c4 08	 add	 esp, 8
$LN2@scalar:
  00041	8b 45 f8	 mov	 eax, DWORD PTR _this$[ebp]
  00044	5f		 pop	 edi
  00045	5e		 pop	 esi
  00046	5b		 pop	 ebx
  00047	81 c4 cc 00 00
	00		 add	 esp, 204		; 000000ccH
  0004d	3b ec		 cmp	 ebp, esp
  0004f	e8 00 00 00 00	 call	 __RTC_CheckEsp
  00054	8b e5		 mov	 esp, ebp
  00056	5d		 pop	 ebp
  00057	c2 04 00	 ret	 4
??_Glogic_error@std@@UAEPAXI@Z ENDP			; std::logic_error::`scalar deleting destructor'
_TEXT	ENDS
; Function compile flags: /Odtp /RTCsu /ZI
;	COMDAT ??0logic_error@std@@QAE@ABV01@@Z
_TEXT	SEGMENT
_this$ = -8						; size = 4
___that$ = 8						; size = 4
??0logic_error@std@@QAE@ABV01@@Z PROC			; std::logic_error::logic_error, COMDAT
; _this$ = ecx
  00000	55		 push	 ebp
  00001	8b ec		 mov	 ebp, esp
  00003	81 ec cc 00 00
	00		 sub	 esp, 204		; 000000ccH
  00009	53		 push	 ebx
  0000a	56		 push	 esi
  0000b	57		 push	 edi
  0000c	51		 push	 ecx
  0000d	8d bd 34 ff ff
	ff		 lea	 edi, DWORD PTR [ebp-204]
  00013	b9 33 00 00 00	 mov	 ecx, 51			; 00000033H
  00018	b8 cc cc cc cc	 mov	 eax, -858993460		; ccccccccH
  0001d	f3 ab		 rep stosd
  0001f	59		 pop	 ecx
  00020	89 4d f8	 mov	 DWORD PTR _this$[ebp], ecx
  00023	8b 45 08	 mov	 eax, DWORD PTR ___that$[ebp]
  00026	50		 push	 eax
  00027	8b 4d f8	 mov	 ecx, DWORD PTR _this$[ebp]
  0002a	e8 00 00 00 00	 call	 ??0exception@std@@QAE@ABV01@@Z ; std::exception::exception
  0002f	8b 45 f8	 mov	 eax, DWORD PTR _this$[ebp]
  00032	c7 00 00 00 00
	00		 mov	 DWORD PTR [eax], OFFSET ??_7logic_error@std@@6B@
  00038	8b 45 f8	 mov	 eax, DWORD PTR _this$[ebp]
  0003b	5f		 pop	 edi
  0003c	5e		 pop	 esi
  0003d	5b		 pop	 ebx
  0003e	81 c4 cc 00 00
	00		 add	 esp, 204		; 000000ccH
  00044	3b ec		 cmp	 ebp, esp
  00046	e8 00 00 00 00	 call	 __RTC_CheckEsp
  0004b	8b e5		 mov	 esp, ebp
  0004d	5d		 pop	 ebp
  0004e	c2 04 00	 ret	 4
??0logic_error@std@@QAE@ABV01@@Z ENDP			; std::logic_error::logic_error
_TEXT	ENDS
; Function compile flags: /Odtp /RTCsu /ZI
;	COMDAT ??1logic_error@std@@UAE@XZ
_TEXT	SEGMENT
_this$ = -8						; size = 4
??1logic_error@std@@UAE@XZ PROC				; std::logic_error::~logic_error, COMDAT
; _this$ = ecx
  00000	55		 push	 ebp
  00001	8b ec		 mov	 ebp, esp
  00003	81 ec cc 00 00
	00		 sub	 esp, 204		; 000000ccH
  00009	53		 push	 ebx
  0000a	56		 push	 esi
  0000b	57		 push	 edi
  0000c	51		 push	 ecx
  0000d	8d bd 34 ff ff
	ff		 lea	 edi, DWORD PTR [ebp-204]
  00013	b9 33 00 00 00	 mov	 ecx, 51			; 00000033H
  00018	b8 cc cc cc cc	 mov	 eax, -858993460		; ccccccccH
  0001d	f3 ab		 rep stosd
  0001f	59		 pop	 ecx
  00020	89 4d f8	 mov	 DWORD PTR _this$[ebp], ecx
  00023	8b 4d f8	 mov	 ecx, DWORD PTR _this$[ebp]
  00026	e8 00 00 00 00	 call	 ??1exception@std@@UAE@XZ ; std::exception::~exception
  0002b	5f		 pop	 edi
  0002c	5e		 pop	 esi
  0002d	5b		 pop	 ebx
  0002e	81 c4 cc 00 00
	00		 add	 esp, 204		; 000000ccH
  00034	3b ec		 cmp	 ebp, esp
  00036	e8 00 00 00 00	 call	 __RTC_CheckEsp
  0003b	8b e5		 mov	 esp, ebp
  0003d	5d		 pop	 ebp
  0003e	c3		 ret	 0
??1logic_error@std@@UAE@XZ ENDP				; std::logic_error::~logic_error
_TEXT	ENDS
; Function compile flags: /Odtp /RTCsu /ZI
; File c:\program files (x86)\microsoft visual studio 14.0\vc\include\stdexcept
;	COMDAT ??0logic_error@std@@QAE@PBD@Z
_TEXT	SEGMENT
_this$ = -8						; size = 4
__Message$ = 8						; size = 4
??0logic_error@std@@QAE@PBD@Z PROC			; std::logic_error::logic_error, COMDAT
; _this$ = ecx

; 38   : 		{	// construct from message string

  00000	55		 push	 ebp
  00001	8b ec		 mov	 ebp, esp
  00003	81 ec cc 00 00
	00		 sub	 esp, 204		; 000000ccH
  00009	53		 push	 ebx
  0000a	56		 push	 esi
  0000b	57		 push	 edi
  0000c	51		 push	 ecx
  0000d	8d bd 34 ff ff
	ff		 lea	 edi, DWORD PTR [ebp-204]
  00013	b9 33 00 00 00	 mov	 ecx, 51			; 00000033H
  00018	b8 cc cc cc cc	 mov	 eax, -858993460		; ccccccccH
  0001d	f3 ab		 rep stosd
  0001f	59		 pop	 ecx
  00020	89 4d f8	 mov	 DWORD PTR _this$[ebp], ecx

; 37   : 		: _Mybase(_Message)

  00023	8b 45 08	 mov	 eax, DWORD PTR __Message$[ebp]
  00026	50		 push	 eax
  00027	8b 4d f8	 mov	 ecx, DWORD PTR _this$[ebp]
  0002a	e8 00 00 00 00	 call	 ??0exception@std@@QAE@QBD@Z ; std::exception::exception

; 38   : 		{	// construct from message string

  0002f	8b 45 f8	 mov	 eax, DWORD PTR _this$[ebp]
  00032	c7 00 00 00 00
	00		 mov	 DWORD PTR [eax], OFFSET ??_7logic_error@std@@6B@

; 39   : 		}

  00038	8b 45 f8	 mov	 eax, DWORD PTR _this$[ebp]
  0003b	5f		 pop	 edi
  0003c	5e		 pop	 esi
  0003d	5b		 pop	 ebx
  0003e	81 c4 cc 00 00
	00		 add	 esp, 204		; 000000ccH
  00044	3b ec		 cmp	 ebp, esp
  00046	e8 00 00 00 00	 call	 __RTC_CheckEsp
  0004b	8b e5		 mov	 esp, ebp
  0004d	5d		 pop	 ebp
  0004e	c2 04 00	 ret	 4
??0logic_error@std@@QAE@PBD@Z ENDP			; std::logic_error::logic_error
_TEXT	ENDS
; Function compile flags: /Odtp /RTCsu /ZI
; File c:\program files (x86)\microsoft visual studio 14.0\vc\include\iosfwd
;	COMDAT ?eof@?$char_traits@D@std@@SAHXZ
_TEXT	SEGMENT
?eof@?$char_traits@D@std@@SAHXZ PROC			; std::char_traits<char>::eof, COMDAT

; 605  : 		{	// return end-of-file metacharacter

  00000	55		 push	 ebp
  00001	8b ec		 mov	 ebp, esp
  00003	81 ec c0 00 00
	00		 sub	 esp, 192		; 000000c0H
  00009	53		 push	 ebx
  0000a	56		 push	 esi
  0000b	57		 push	 edi
  0000c	8d bd 40 ff ff
	ff		 lea	 edi, DWORD PTR [ebp-192]
  00012	b9 30 00 00 00	 mov	 ecx, 48			; 00000030H
  00017	b8 cc cc cc cc	 mov	 eax, -858993460		; ccccccccH
  0001c	f3 ab		 rep stosd

; 606  : 		return (EOF);

  0001e	83 c8 ff	 or	 eax, -1

; 607  : 		}

  00021	5f		 pop	 edi
  00022	5e		 pop	 esi
  00023	5b		 pop	 ebx
  00024	8b e5		 mov	 esp, ebp
  00026	5d		 pop	 ebp
  00027	c3		 ret	 0
?eof@?$char_traits@D@std@@SAHXZ ENDP			; std::char_traits<char>::eof
_TEXT	ENDS
; Function compile flags: /Odtp /RTCsu /ZI
; File c:\program files (x86)\microsoft visual studio 14.0\vc\include\iosfwd
;	COMDAT ?eq_int_type@?$char_traits@D@std@@SA_NABH0@Z
_TEXT	SEGMENT
tv65 = -196						; size = 4
__Left$ = 8						; size = 4
__Right$ = 12						; size = 4
?eq_int_type@?$char_traits@D@std@@SA_NABH0@Z PROC	; std::char_traits<char>::eq_int_type, COMDAT

; 594  : 		{	// test for metacharacter equality

  00000	55		 push	 ebp
  00001	8b ec		 mov	 ebp, esp
  00003	81 ec c4 00 00
	00		 sub	 esp, 196		; 000000c4H
  00009	53		 push	 ebx
  0000a	56		 push	 esi
  0000b	57		 push	 edi
  0000c	8d bd 3c ff ff
	ff		 lea	 edi, DWORD PTR [ebp-196]
  00012	b9 31 00 00 00	 mov	 ecx, 49			; 00000031H
  00017	b8 cc cc cc cc	 mov	 eax, -858993460		; ccccccccH
  0001c	f3 ab		 rep stosd

; 595  : 		return (_Left == _Right);

  0001e	8b 45 08	 mov	 eax, DWORD PTR __Left$[ebp]
  00021	8b 4d 0c	 mov	 ecx, DWORD PTR __Right$[ebp]
  00024	8b 10		 mov	 edx, DWORD PTR [eax]
  00026	3b 11		 cmp	 edx, DWORD PTR [ecx]
  00028	75 0c		 jne	 SHORT $LN3@eq_int_typ
  0002a	c7 85 3c ff ff
	ff 01 00 00 00	 mov	 DWORD PTR tv65[ebp], 1
  00034	eb 0a		 jmp	 SHORT $LN4@eq_int_typ
$LN3@eq_int_typ:
  00036	c7 85 3c ff ff
	ff 00 00 00 00	 mov	 DWORD PTR tv65[ebp], 0
$LN4@eq_int_typ:
  00040	8a 85 3c ff ff
	ff		 mov	 al, BYTE PTR tv65[ebp]

; 596  : 		}

  00046	5f		 pop	 edi
  00047	5e		 pop	 esi
  00048	5b		 pop	 ebx
  00049	8b e5		 mov	 esp, ebp
  0004b	5d		 pop	 ebp
  0004c	c3		 ret	 0
?eq_int_type@?$char_traits@D@std@@SA_NABH0@Z ENDP	; std::char_traits<char>::eq_int_type
_TEXT	ENDS
; Function compile flags: /Odtp /RTCsu /ZI
; File c:\program files (x86)\microsoft visual studio 14.0\vc\include\iosfwd
;	COMDAT ?length@?$char_traits@D@std@@SAIPBD@Z
_TEXT	SEGMENT
tv68 = -196						; size = 4
__First$ = 8						; size = 4
?length@?$char_traits@D@std@@SAIPBD@Z PROC		; std::char_traits<char>::length, COMDAT

; 522  : 		{	// find length of null-terminated string

  00000	55		 push	 ebp
  00001	8b ec		 mov	 ebp, esp
  00003	81 ec c4 00 00
	00		 sub	 esp, 196		; 000000c4H
  00009	53		 push	 ebx
  0000a	56		 push	 esi
  0000b	57		 push	 edi
  0000c	8d bd 3c ff ff
	ff		 lea	 edi, DWORD PTR [ebp-196]
  00012	b9 31 00 00 00	 mov	 ecx, 49			; 00000031H
  00017	b8 cc cc cc cc	 mov	 eax, -858993460		; ccccccccH
  0001c	f3 ab		 rep stosd

; 523  : 		return (*_First == 0 ? 0

  0001e	8b 45 08	 mov	 eax, DWORD PTR __First$[ebp]
  00021	0f be 08	 movsx	 ecx, BYTE PTR [eax]
  00024	85 c9		 test	 ecx, ecx
  00026	75 0c		 jne	 SHORT $LN3@length
  00028	c7 85 3c ff ff
	ff 00 00 00 00	 mov	 DWORD PTR tv68[ebp], 0
  00032	eb 12		 jmp	 SHORT $LN4@length
$LN3@length:
  00034	8b 55 08	 mov	 edx, DWORD PTR __First$[ebp]
  00037	52		 push	 edx
  00038	e8 00 00 00 00	 call	 _strlen
  0003d	83 c4 04	 add	 esp, 4
  00040	89 85 3c ff ff
	ff		 mov	 DWORD PTR tv68[ebp], eax
$LN4@length:
  00046	8b 85 3c ff ff
	ff		 mov	 eax, DWORD PTR tv68[ebp]

; 524  : 			: _CSTD strlen(_First));
; 525  : 		}

  0004c	5f		 pop	 edi
  0004d	5e		 pop	 esi
  0004e	5b		 pop	 ebx
  0004f	81 c4 c4 00 00
	00		 add	 esp, 196		; 000000c4H
  00055	3b ec		 cmp	 ebp, esp
  00057	e8 00 00 00 00	 call	 __RTC_CheckEsp
  0005c	8b e5		 mov	 esp, ebp
  0005e	5d		 pop	 ebp
  0005f	c3		 ret	 0
?length@?$char_traits@D@std@@SAIPBD@Z ENDP		; std::char_traits<char>::length
_TEXT	ENDS
; Function compile flags: /Odtp /RTCsu /ZI
;	COMDAT ??_Gexception@std@@UAEPAXI@Z
_TEXT	SEGMENT
_this$ = -8						; size = 4
___flags$ = 8						; size = 4
??_Gexception@std@@UAEPAXI@Z PROC			; std::exception::`scalar deleting destructor', COMDAT
; _this$ = ecx
  00000	55		 push	 ebp
  00001	8b ec		 mov	 ebp, esp
  00003	81 ec cc 00 00
	00		 sub	 esp, 204		; 000000ccH
  00009	53		 push	 ebx
  0000a	56		 push	 esi
  0000b	57		 push	 edi
  0000c	51		 push	 ecx
  0000d	8d bd 34 ff ff
	ff		 lea	 edi, DWORD PTR [ebp-204]
  00013	b9 33 00 00 00	 mov	 ecx, 51			; 00000033H
  00018	b8 cc cc cc cc	 mov	 eax, -858993460		; ccccccccH
  0001d	f3 ab		 rep stosd
  0001f	59		 pop	 ecx
  00020	89 4d f8	 mov	 DWORD PTR _this$[ebp], ecx
  00023	8b 4d f8	 mov	 ecx, DWORD PTR _this$[ebp]
  00026	e8 00 00 00 00	 call	 ??1exception@std@@UAE@XZ ; std::exception::~exception
  0002b	8b 45 08	 mov	 eax, DWORD PTR ___flags$[ebp]
  0002e	83 e0 01	 and	 eax, 1
  00031	74 0e		 je	 SHORT $LN2@scalar
  00033	6a 0c		 push	 12			; 0000000cH
  00035	8b 45 f8	 mov	 eax, DWORD PTR _this$[ebp]
  00038	50		 push	 eax
  00039	e8 00 00 00 00	 call	 ??3@YAXPAXI@Z		; operator delete
  0003e	83 c4 08	 add	 esp, 8
$LN2@scalar:
  00041	8b 45 f8	 mov	 eax, DWORD PTR _this$[ebp]
  00044	5f		 pop	 edi
  00045	5e		 pop	 esi
  00046	5b		 pop	 ebx
  00047	81 c4 cc 00 00
	00		 add	 esp, 204		; 000000ccH
  0004d	3b ec		 cmp	 ebp, esp
  0004f	e8 00 00 00 00	 call	 __RTC_CheckEsp
  00054	8b e5		 mov	 esp, ebp
  00056	5d		 pop	 ebp
  00057	c2 04 00	 ret	 4
??_Gexception@std@@UAEPAXI@Z ENDP			; std::exception::`scalar deleting destructor'
_TEXT	ENDS
; Function compile flags: /Odtp /RTCsu /ZI
; File c:\program files (x86)\microsoft visual studio 14.0\vc\include\vcruntime_exception.h
;	COMDAT ?what@exception@std@@UBEPBDXZ
_TEXT	SEGMENT
tv69 = -208						; size = 4
_this$ = -8						; size = 4
?what@exception@std@@UBEPBDXZ PROC			; std::exception::what, COMDAT
; _this$ = ecx

; 88   :     {

  00000	55		 push	 ebp
  00001	8b ec		 mov	 ebp, esp
  00003	81 ec d0 00 00
	00		 sub	 esp, 208		; 000000d0H
  00009	53		 push	 ebx
  0000a	56		 push	 esi
  0000b	57		 push	 edi
  0000c	51		 push	 ecx
  0000d	8d bd 30 ff ff
	ff		 lea	 edi, DWORD PTR [ebp-208]
  00013	b9 34 00 00 00	 mov	 ecx, 52			; 00000034H
  00018	b8 cc cc cc cc	 mov	 eax, -858993460		; ccccccccH
  0001d	f3 ab		 rep stosd
  0001f	59		 pop	 ecx
  00020	89 4d f8	 mov	 DWORD PTR _this$[ebp], ecx

; 89   :         return _Data._What ? _Data._What : "Unknown exception";

  00023	8b 45 f8	 mov	 eax, DWORD PTR _this$[ebp]
  00026	83 78 04 00	 cmp	 DWORD PTR [eax+4], 0
  0002a	74 0e		 je	 SHORT $LN3@what
  0002c	8b 4d f8	 mov	 ecx, DWORD PTR _this$[ebp]
  0002f	8b 51 04	 mov	 edx, DWORD PTR [ecx+4]
  00032	89 95 30 ff ff
	ff		 mov	 DWORD PTR tv69[ebp], edx
  00038	eb 0a		 jmp	 SHORT $LN4@what
$LN3@what:
  0003a	c7 85 30 ff ff
	ff 00 00 00 00	 mov	 DWORD PTR tv69[ebp], OFFSET ??_C@_0BC@EOODALEL@Unknown?5exception?$AA@
$LN4@what:
  00044	8b 85 30 ff ff
	ff		 mov	 eax, DWORD PTR tv69[ebp]

; 90   :     }

  0004a	5f		 pop	 edi
  0004b	5e		 pop	 esi
  0004c	5b		 pop	 ebx
  0004d	8b e5		 mov	 esp, ebp
  0004f	5d		 pop	 ebp
  00050	c3		 ret	 0
?what@exception@std@@UBEPBDXZ ENDP			; std::exception::what
_TEXT	ENDS
; Function compile flags: /Odtp /RTCsu /ZI
; File c:\program files (x86)\microsoft visual studio 14.0\vc\include\vcruntime_exception.h
;	COMDAT ??1exception@std@@UAE@XZ
_TEXT	SEGMENT
_this$ = -8						; size = 4
??1exception@std@@UAE@XZ PROC				; std::exception::~exception, COMDAT
; _this$ = ecx

; 83   :     {

  00000	55		 push	 ebp
  00001	8b ec		 mov	 ebp, esp
  00003	81 ec cc 00 00
	00		 sub	 esp, 204		; 000000ccH
  00009	53		 push	 ebx
  0000a	56		 push	 esi
  0000b	57		 push	 edi
  0000c	51		 push	 ecx
  0000d	8d bd 34 ff ff
	ff		 lea	 edi, DWORD PTR [ebp-204]
  00013	b9 33 00 00 00	 mov	 ecx, 51			; 00000033H
  00018	b8 cc cc cc cc	 mov	 eax, -858993460		; ccccccccH
  0001d	f3 ab		 rep stosd
  0001f	59		 pop	 ecx
  00020	89 4d f8	 mov	 DWORD PTR _this$[ebp], ecx
  00023	8b 45 f8	 mov	 eax, DWORD PTR _this$[ebp]
  00026	c7 00 00 00 00
	00		 mov	 DWORD PTR [eax], OFFSET ??_7exception@std@@6B@

; 84   :         __std_exception_destroy(&_Data);

  0002c	8b 45 f8	 mov	 eax, DWORD PTR _this$[ebp]
  0002f	83 c0 04	 add	 eax, 4
  00032	8b f4		 mov	 esi, esp
  00034	50		 push	 eax
  00035	ff 15 00 00 00
	00		 call	 DWORD PTR __imp____std_exception_destroy
  0003b	83 c4 04	 add	 esp, 4
  0003e	3b f4		 cmp	 esi, esp
  00040	e8 00 00 00 00	 call	 __RTC_CheckEsp

; 85   :     }

  00045	5f		 pop	 edi
  00046	5e		 pop	 esi
  00047	5b		 pop	 ebx
  00048	81 c4 cc 00 00
	00		 add	 esp, 204		; 000000ccH
  0004e	3b ec		 cmp	 ebp, esp
  00050	e8 00 00 00 00	 call	 __RTC_CheckEsp
  00055	8b e5		 mov	 esp, ebp
  00057	5d		 pop	 ebp
  00058	c3		 ret	 0
??1exception@std@@UAE@XZ ENDP				; std::exception::~exception
_TEXT	ENDS
; Function compile flags: /Odtp /RTCsu /ZI
; File c:\program files (x86)\microsoft visual studio 14.0\vc\include\vcruntime_exception.h
;	COMDAT ??0exception@std@@QAE@ABV01@@Z
_TEXT	SEGMENT
_this$ = -8						; size = 4
__Other$ = 8						; size = 4
??0exception@std@@QAE@ABV01@@Z PROC			; std::exception::exception, COMDAT
; _this$ = ecx

; 66   :     {

  00000	55		 push	 ebp
  00001	8b ec		 mov	 ebp, esp
  00003	81 ec cc 00 00
	00		 sub	 esp, 204		; 000000ccH
  00009	53		 push	 ebx
  0000a	56		 push	 esi
  0000b	57		 push	 edi
  0000c	51		 push	 ecx
  0000d	8d bd 34 ff ff
	ff		 lea	 edi, DWORD PTR [ebp-204]
  00013	b9 33 00 00 00	 mov	 ecx, 51			; 00000033H
  00018	b8 cc cc cc cc	 mov	 eax, -858993460		; ccccccccH
  0001d	f3 ab		 rep stosd
  0001f	59		 pop	 ecx
  00020	89 4d f8	 mov	 DWORD PTR _this$[ebp], ecx
  00023	8b 45 f8	 mov	 eax, DWORD PTR _this$[ebp]
  00026	c7 00 00 00 00
	00		 mov	 DWORD PTR [eax], OFFSET ??_7exception@std@@6B@

; 65   :         : _Data()

  0002c	33 c0		 xor	 eax, eax
  0002e	8b 4d f8	 mov	 ecx, DWORD PTR _this$[ebp]
  00031	83 c1 04	 add	 ecx, 4
  00034	89 01		 mov	 DWORD PTR [ecx], eax
  00036	89 41 04	 mov	 DWORD PTR [ecx+4], eax

; 67   :         __std_exception_copy(&_Other._Data, &_Data);

  00039	8b 45 f8	 mov	 eax, DWORD PTR _this$[ebp]
  0003c	83 c0 04	 add	 eax, 4
  0003f	8b f4		 mov	 esi, esp
  00041	50		 push	 eax
  00042	8b 4d 08	 mov	 ecx, DWORD PTR __Other$[ebp]
  00045	83 c1 04	 add	 ecx, 4
  00048	51		 push	 ecx
  00049	ff 15 00 00 00
	00		 call	 DWORD PTR __imp____std_exception_copy
  0004f	83 c4 08	 add	 esp, 8
  00052	3b f4		 cmp	 esi, esp
  00054	e8 00 00 00 00	 call	 __RTC_CheckEsp

; 68   :     }

  00059	8b 45 f8	 mov	 eax, DWORD PTR _this$[ebp]
  0005c	5f		 pop	 edi
  0005d	5e		 pop	 esi
  0005e	5b		 pop	 ebx
  0005f	81 c4 cc 00 00
	00		 add	 esp, 204		; 000000ccH
  00065	3b ec		 cmp	 ebp, esp
  00067	e8 00 00 00 00	 call	 __RTC_CheckEsp
  0006c	8b e5		 mov	 esp, ebp
  0006e	5d		 pop	 ebp
  0006f	c2 04 00	 ret	 4
??0exception@std@@QAE@ABV01@@Z ENDP			; std::exception::exception
_TEXT	ENDS
; Function compile flags: /Odtp /RTCsu /ZI
; File c:\program files (x86)\microsoft visual studio 14.0\vc\include\vcruntime_exception.h
;	COMDAT ??0exception@std@@QAE@QBD@Z
_TEXT	SEGMENT
__InitData$ = -24					; size = 8
_this$ = -8						; size = 4
__Message$ = 8						; size = 4
??0exception@std@@QAE@QBD@Z PROC			; std::exception::exception, COMDAT
; _this$ = ecx

; 53   :     {

  00000	55		 push	 ebp
  00001	8b ec		 mov	 ebp, esp
  00003	81 ec dc 00 00
	00		 sub	 esp, 220		; 000000dcH
  00009	53		 push	 ebx
  0000a	56		 push	 esi
  0000b	57		 push	 edi
  0000c	51		 push	 ecx
  0000d	8d bd 24 ff ff
	ff		 lea	 edi, DWORD PTR [ebp-220]
  00013	b9 37 00 00 00	 mov	 ecx, 55			; 00000037H
  00018	b8 cc cc cc cc	 mov	 eax, -858993460		; ccccccccH
  0001d	f3 ab		 rep stosd
  0001f	59		 pop	 ecx
  00020	89 4d f8	 mov	 DWORD PTR _this$[ebp], ecx
  00023	8b 45 f8	 mov	 eax, DWORD PTR _this$[ebp]
  00026	c7 00 00 00 00
	00		 mov	 DWORD PTR [eax], OFFSET ??_7exception@std@@6B@

; 52   :         : _Data()

  0002c	33 c0		 xor	 eax, eax
  0002e	8b 4d f8	 mov	 ecx, DWORD PTR _this$[ebp]
  00031	83 c1 04	 add	 ecx, 4
  00034	89 01		 mov	 DWORD PTR [ecx], eax
  00036	89 41 04	 mov	 DWORD PTR [ecx+4], eax

; 54   :         __std_exception_data _InitData = { _Message, true };

  00039	8b 45 08	 mov	 eax, DWORD PTR __Message$[ebp]
  0003c	89 45 e8	 mov	 DWORD PTR __InitData$[ebp], eax
  0003f	c6 45 ec 01	 mov	 BYTE PTR __InitData$[ebp+4], 1

; 55   :         __std_exception_copy(&_InitData, &_Data);

  00043	8b 45 f8	 mov	 eax, DWORD PTR _this$[ebp]
  00046	83 c0 04	 add	 eax, 4
  00049	8b f4		 mov	 esi, esp
  0004b	50		 push	 eax
  0004c	8d 4d e8	 lea	 ecx, DWORD PTR __InitData$[ebp]
  0004f	51		 push	 ecx
  00050	ff 15 00 00 00
	00		 call	 DWORD PTR __imp____std_exception_copy
  00056	83 c4 08	 add	 esp, 8
  00059	3b f4		 cmp	 esi, esp
  0005b	e8 00 00 00 00	 call	 __RTC_CheckEsp

; 56   :     }

  00060	8b 45 f8	 mov	 eax, DWORD PTR _this$[ebp]
  00063	52		 push	 edx
  00064	8b cd		 mov	 ecx, ebp
  00066	50		 push	 eax
  00067	8d 15 00 00 00
	00		 lea	 edx, DWORD PTR $LN5@exception
  0006d	e8 00 00 00 00	 call	 @_RTC_CheckStackVars@8
  00072	58		 pop	 eax
  00073	5a		 pop	 edx
  00074	5f		 pop	 edi
  00075	5e		 pop	 esi
  00076	5b		 pop	 ebx
  00077	81 c4 dc 00 00
	00		 add	 esp, 220		; 000000dcH
  0007d	3b ec		 cmp	 ebp, esp
  0007f	e8 00 00 00 00	 call	 __RTC_CheckEsp
  00084	8b e5		 mov	 esp, ebp
  00086	5d		 pop	 ebp
  00087	c2 04 00	 ret	 4
  0008a	66 90		 npad	 2
$LN5@exception:
  0008c	01 00 00 00	 DD	 1
  00090	00 00 00 00	 DD	 $LN4@exception
$LN4@exception:
  00094	e8 ff ff ff	 DD	 -24			; ffffffe8H
  00098	08 00 00 00	 DD	 8
  0009c	00 00 00 00	 DD	 $LN3@exception
$LN3@exception:
  000a0	5f		 DB	 95			; 0000005fH
  000a1	49		 DB	 73			; 00000049H
  000a2	6e		 DB	 110			; 0000006eH
  000a3	69		 DB	 105			; 00000069H
  000a4	74		 DB	 116			; 00000074H
  000a5	44		 DB	 68			; 00000044H
  000a6	61		 DB	 97			; 00000061H
  000a7	74		 DB	 116			; 00000074H
  000a8	61		 DB	 97			; 00000061H
  000a9	00		 DB	 0
??0exception@std@@QAE@QBD@Z ENDP			; std::exception::exception
_TEXT	ENDS
; Function compile flags: /Odtp /RTCsu /ZI
; File d:\vs2015projects\dll-lib\mydll\mydll.cpp
;	COMDAT ?Divide@MyDLLFuncs@1@SANNN@Z
_TEXT	SEGMENT
tv94 = -220						; size = 8
$T1 = -208						; size = 12
_a$ = 8							; size = 8
_b$ = 16						; size = 8
?Divide@MyDLLFuncs@1@SANNN@Z PROC			; MyDLLFuncs::MyDLLFuncs::Divide, COMDAT

; 33   : 	{

  00000	55		 push	 ebp
  00001	8b ec		 mov	 ebp, esp
  00003	81 ec dc 00 00
	00		 sub	 esp, 220		; 000000dcH
  00009	53		 push	 ebx
  0000a	56		 push	 esi
  0000b	57		 push	 edi
  0000c	8d bd 24 ff ff
	ff		 lea	 edi, DWORD PTR [ebp-220]
  00012	b9 37 00 00 00	 mov	 ecx, 55			; 00000037H
  00017	b8 cc cc cc cc	 mov	 eax, -858993460		; ccccccccH
  0001c	f3 ab		 rep stosd

; 34   : 		if (b == 0)

  0001e	f2 0f 10 45 10	 movsd	 xmm0, QWORD PTR _b$[ebp]
  00023	66 0f 2e 05 00
	00 00 00	 ucomisd xmm0, QWORD PTR __real@0000000000000000
  0002b	9f		 lahf
  0002c	f6 c4 44	 test	 ah, 68			; 00000044H
  0002f	7a 4a		 jp	 SHORT $LN2@Divide

; 35   : 		{
; 36   : 			cout << "Called from a DLL." << endl;

  00031	8b f4		 mov	 esi, esp
  00033	68 00 00 00 00	 push	 OFFSET ??$endl@DU?$char_traits@D@std@@@std@@YAAAV?$basic_ostream@DU?$char_traits@D@std@@@0@AAV10@@Z ; std::endl<char,std::char_traits<char> >
  00038	68 00 00 00 00	 push	 OFFSET ??_C@_0BD@NNNEKMHO@Called?5from?5a?5DLL?4?$AA@
  0003d	a1 00 00 00 00	 mov	 eax, DWORD PTR __imp_?cout@std@@3V?$basic_ostream@DU?$char_traits@D@std@@@1@A
  00042	50		 push	 eax
  00043	e8 00 00 00 00	 call	 ??$?6U?$char_traits@D@std@@@std@@YAAAV?$basic_ostream@DU?$char_traits@D@std@@@0@AAV10@PBD@Z ; std::operator<<<std::char_traits<char> >
  00048	83 c4 08	 add	 esp, 8
  0004b	8b c8		 mov	 ecx, eax
  0004d	ff 15 00 00 00
	00		 call	 DWORD PTR __imp_??6?$basic_ostream@DU?$char_traits@D@std@@@std@@QAEAAV01@P6AAAV01@AAV01@@Z@Z
  00053	3b f4		 cmp	 esi, esp
  00055	e8 00 00 00 00	 call	 __RTC_CheckEsp

; 37   : 			throw invalid_argument("b cannot be zero!");

  0005a	68 00 00 00 00	 push	 OFFSET ??_C@_0BC@IHENMCGI@b?5cannot?5be?5zero?$CB?$AA@
  0005f	8d 8d 30 ff ff
	ff		 lea	 ecx, DWORD PTR $T1[ebp]
  00065	e8 00 00 00 00	 call	 ??0invalid_argument@std@@QAE@PBD@Z ; std::invalid_argument::invalid_argument
  0006a	68 00 00 00 00	 push	 OFFSET __TI3?AVinvalid_argument@std@@
  0006f	8d 85 30 ff ff
	ff		 lea	 eax, DWORD PTR $T1[ebp]
  00075	50		 push	 eax
  00076	e8 00 00 00 00	 call	 __CxxThrowException@8
$LN2@Divide:

; 38   : 		}
; 39   : 		cout << "Called from a DLL." << endl;

  0007b	8b f4		 mov	 esi, esp
  0007d	68 00 00 00 00	 push	 OFFSET ??$endl@DU?$char_traits@D@std@@@std@@YAAAV?$basic_ostream@DU?$char_traits@D@std@@@0@AAV10@@Z ; std::endl<char,std::char_traits<char> >
  00082	68 00 00 00 00	 push	 OFFSET ??_C@_0BD@NNNEKMHO@Called?5from?5a?5DLL?4?$AA@
  00087	a1 00 00 00 00	 mov	 eax, DWORD PTR __imp_?cout@std@@3V?$basic_ostream@DU?$char_traits@D@std@@@1@A
  0008c	50		 push	 eax
  0008d	e8 00 00 00 00	 call	 ??$?6U?$char_traits@D@std@@@std@@YAAAV?$basic_ostream@DU?$char_traits@D@std@@@0@AAV10@PBD@Z ; std::operator<<<std::char_traits<char> >
  00092	83 c4 08	 add	 esp, 8
  00095	8b c8		 mov	 ecx, eax
  00097	ff 15 00 00 00
	00		 call	 DWORD PTR __imp_??6?$basic_ostream@DU?$char_traits@D@std@@@std@@QAEAAV01@P6AAAV01@AAV01@@Z@Z
  0009d	3b f4		 cmp	 esi, esp
  0009f	e8 00 00 00 00	 call	 __RTC_CheckEsp

; 40   : 		return a / b;

  000a4	f2 0f 10 45 08	 movsd	 xmm0, QWORD PTR _a$[ebp]
  000a9	f2 0f 5e 45 10	 divsd	 xmm0, QWORD PTR _b$[ebp]
  000ae	f2 0f 11 85 24
	ff ff ff	 movsd	 QWORD PTR tv94[ebp], xmm0
  000b6	dd 85 24 ff ff
	ff		 fld	 QWORD PTR tv94[ebp]
$LN1@Divide:

; 41   : 	}

  000bc	5f		 pop	 edi
  000bd	5e		 pop	 esi
  000be	5b		 pop	 ebx
  000bf	81 c4 dc 00 00
	00		 add	 esp, 220		; 000000dcH
  000c5	3b ec		 cmp	 ebp, esp
  000c7	e8 00 00 00 00	 call	 __RTC_CheckEsp
  000cc	8b e5		 mov	 esp, ebp
  000ce	5d		 pop	 ebp
  000cf	c3		 ret	 0
?Divide@MyDLLFuncs@1@SANNN@Z ENDP			; MyDLLFuncs::MyDLLFuncs::Divide
_TEXT	ENDS
; Function compile flags: /Odtp /RTCsu /ZI
; File d:\vs2015projects\dll-lib\mydll\mydll.cpp
;	COMDAT ?Multiply@MyDLLFuncs@1@SANNN@Z
_TEXT	SEGMENT
tv76 = -200						; size = 8
_a$ = 8							; size = 8
_b$ = 16						; size = 8
?Multiply@MyDLLFuncs@1@SANNN@Z PROC			; MyDLLFuncs::MyDLLFuncs::Multiply, COMDAT

; 27   : 	{

  00000	55		 push	 ebp
  00001	8b ec		 mov	 ebp, esp
  00003	81 ec c8 00 00
	00		 sub	 esp, 200		; 000000c8H
  00009	53		 push	 ebx
  0000a	56		 push	 esi
  0000b	57		 push	 edi
  0000c	8d bd 38 ff ff
	ff		 lea	 edi, DWORD PTR [ebp-200]
  00012	b9 32 00 00 00	 mov	 ecx, 50			; 00000032H
  00017	b8 cc cc cc cc	 mov	 eax, -858993460		; ccccccccH
  0001c	f3 ab		 rep stosd

; 28   : 		cout << "Called from a DLL." << endl;

  0001e	8b f4		 mov	 esi, esp
  00020	68 00 00 00 00	 push	 OFFSET ??$endl@DU?$char_traits@D@std@@@std@@YAAAV?$basic_ostream@DU?$char_traits@D@std@@@0@AAV10@@Z ; std::endl<char,std::char_traits<char> >
  00025	68 00 00 00 00	 push	 OFFSET ??_C@_0BD@NNNEKMHO@Called?5from?5a?5DLL?4?$AA@
  0002a	a1 00 00 00 00	 mov	 eax, DWORD PTR __imp_?cout@std@@3V?$basic_ostream@DU?$char_traits@D@std@@@1@A
  0002f	50		 push	 eax
  00030	e8 00 00 00 00	 call	 ??$?6U?$char_traits@D@std@@@std@@YAAAV?$basic_ostream@DU?$char_traits@D@std@@@0@AAV10@PBD@Z ; std::operator<<<std::char_traits<char> >
  00035	83 c4 08	 add	 esp, 8
  00038	8b c8		 mov	 ecx, eax
  0003a	ff 15 00 00 00
	00		 call	 DWORD PTR __imp_??6?$basic_ostream@DU?$char_traits@D@std@@@std@@QAEAAV01@P6AAAV01@AAV01@@Z@Z
  00040	3b f4		 cmp	 esi, esp
  00042	e8 00 00 00 00	 call	 __RTC_CheckEsp

; 29   : 		return a * b;

  00047	f2 0f 10 45 08	 movsd	 xmm0, QWORD PTR _a$[ebp]
  0004c	f2 0f 59 45 10	 mulsd	 xmm0, QWORD PTR _b$[ebp]
  00051	f2 0f 11 85 38
	ff ff ff	 movsd	 QWORD PTR tv76[ebp], xmm0
  00059	dd 85 38 ff ff
	ff		 fld	 QWORD PTR tv76[ebp]

; 30   : 	}

  0005f	5f		 pop	 edi
  00060	5e		 pop	 esi
  00061	5b		 pop	 ebx
  00062	81 c4 c8 00 00
	00		 add	 esp, 200		; 000000c8H
  00068	3b ec		 cmp	 ebp, esp
  0006a	e8 00 00 00 00	 call	 __RTC_CheckEsp
  0006f	8b e5		 mov	 esp, ebp
  00071	5d		 pop	 ebp
  00072	c3		 ret	 0
?Multiply@MyDLLFuncs@1@SANNN@Z ENDP			; MyDLLFuncs::MyDLLFuncs::Multiply
_TEXT	ENDS
; Function compile flags: /Odtp /RTCsu /ZI
; File d:\vs2015projects\dll-lib\mydll\mydll.cpp
;	COMDAT ?Subtract@MyDLLFuncs@1@SANNN@Z
_TEXT	SEGMENT
tv76 = -200						; size = 8
_a$ = 8							; size = 8
_b$ = 16						; size = 8
?Subtract@MyDLLFuncs@1@SANNN@Z PROC			; MyDLLFuncs::MyDLLFuncs::Subtract, COMDAT

; 21   : 	{

  00000	55		 push	 ebp
  00001	8b ec		 mov	 ebp, esp
  00003	81 ec c8 00 00
	00		 sub	 esp, 200		; 000000c8H
  00009	53		 push	 ebx
  0000a	56		 push	 esi
  0000b	57		 push	 edi
  0000c	8d bd 38 ff ff
	ff		 lea	 edi, DWORD PTR [ebp-200]
  00012	b9 32 00 00 00	 mov	 ecx, 50			; 00000032H
  00017	b8 cc cc cc cc	 mov	 eax, -858993460		; ccccccccH
  0001c	f3 ab		 rep stosd

; 22   : 		cout << "Called from a DLL." << endl;

  0001e	8b f4		 mov	 esi, esp
  00020	68 00 00 00 00	 push	 OFFSET ??$endl@DU?$char_traits@D@std@@@std@@YAAAV?$basic_ostream@DU?$char_traits@D@std@@@0@AAV10@@Z ; std::endl<char,std::char_traits<char> >
  00025	68 00 00 00 00	 push	 OFFSET ??_C@_0BD@NNNEKMHO@Called?5from?5a?5DLL?4?$AA@
  0002a	a1 00 00 00 00	 mov	 eax, DWORD PTR __imp_?cout@std@@3V?$basic_ostream@DU?$char_traits@D@std@@@1@A
  0002f	50		 push	 eax
  00030	e8 00 00 00 00	 call	 ??$?6U?$char_traits@D@std@@@std@@YAAAV?$basic_ostream@DU?$char_traits@D@std@@@0@AAV10@PBD@Z ; std::operator<<<std::char_traits<char> >
  00035	83 c4 08	 add	 esp, 8
  00038	8b c8		 mov	 ecx, eax
  0003a	ff 15 00 00 00
	00		 call	 DWORD PTR __imp_??6?$basic_ostream@DU?$char_traits@D@std@@@std@@QAEAAV01@P6AAAV01@AAV01@@Z@Z
  00040	3b f4		 cmp	 esi, esp
  00042	e8 00 00 00 00	 call	 __RTC_CheckEsp

; 23   : 		return a - b;

  00047	f2 0f 10 45 08	 movsd	 xmm0, QWORD PTR _a$[ebp]
  0004c	f2 0f 5c 45 10	 subsd	 xmm0, QWORD PTR _b$[ebp]
  00051	f2 0f 11 85 38
	ff ff ff	 movsd	 QWORD PTR tv76[ebp], xmm0
  00059	dd 85 38 ff ff
	ff		 fld	 QWORD PTR tv76[ebp]

; 24   : 	}

  0005f	5f		 pop	 edi
  00060	5e		 pop	 esi
  00061	5b		 pop	 ebx
  00062	81 c4 c8 00 00
	00		 add	 esp, 200		; 000000c8H
  00068	3b ec		 cmp	 ebp, esp
  0006a	e8 00 00 00 00	 call	 __RTC_CheckEsp
  0006f	8b e5		 mov	 esp, ebp
  00071	5d		 pop	 ebp
  00072	c3		 ret	 0
?Subtract@MyDLLFuncs@1@SANNN@Z ENDP			; MyDLLFuncs::MyDLLFuncs::Subtract
_TEXT	ENDS
; Function compile flags: /Odtp /RTCsu /ZI
; File d:\vs2015projects\dll-lib\mydll\mydll.cpp
;	COMDAT ?Add@MyDLLFuncs@1@SANNN@Z
_TEXT	SEGMENT
tv85 = -200						; size = 8
_a$ = 8							; size = 8
_b$ = 16						; size = 8
?Add@MyDLLFuncs@1@SANNN@Z PROC				; MyDLLFuncs::MyDLLFuncs::Add, COMDAT

; 15   : 	{

  00000	55		 push	 ebp
  00001	8b ec		 mov	 ebp, esp
  00003	81 ec c8 00 00
	00		 sub	 esp, 200		; 000000c8H
  00009	53		 push	 ebx
  0000a	56		 push	 esi
  0000b	57		 push	 edi
  0000c	8d bd 38 ff ff
	ff		 lea	 edi, DWORD PTR [ebp-200]
  00012	b9 32 00 00 00	 mov	 ecx, 50			; 00000032H
  00017	b8 cc cc cc cc	 mov	 eax, -858993460		; ccccccccH
  0001c	f3 ab		 rep stosd

; 16   : 		cout << "Called from a DLL. Returning " << a + b << endl;

  0001e	8b f4		 mov	 esi, esp
  00020	68 00 00 00 00	 push	 OFFSET ??$endl@DU?$char_traits@D@std@@@std@@YAAAV?$basic_ostream@DU?$char_traits@D@std@@@0@AAV10@@Z ; std::endl<char,std::char_traits<char> >
  00025	f2 0f 10 45 08	 movsd	 xmm0, QWORD PTR _a$[ebp]
  0002a	f2 0f 58 45 10	 addsd	 xmm0, QWORD PTR _b$[ebp]
  0002f	8b fc		 mov	 edi, esp
  00031	83 ec 08	 sub	 esp, 8
  00034	f2 0f 11 04 24	 movsd	 QWORD PTR [esp], xmm0
  00039	68 00 00 00 00	 push	 OFFSET ??_C@_0BO@FDNPFOHF@Called?5from?5a?5DLL?4?5Returning?5?$AA@
  0003e	a1 00 00 00 00	 mov	 eax, DWORD PTR __imp_?cout@std@@3V?$basic_ostream@DU?$char_traits@D@std@@@1@A
  00043	50		 push	 eax
  00044	e8 00 00 00 00	 call	 ??$?6U?$char_traits@D@std@@@std@@YAAAV?$basic_ostream@DU?$char_traits@D@std@@@0@AAV10@PBD@Z ; std::operator<<<std::char_traits<char> >
  00049	83 c4 08	 add	 esp, 8
  0004c	8b c8		 mov	 ecx, eax
  0004e	ff 15 00 00 00
	00		 call	 DWORD PTR __imp_??6?$basic_ostream@DU?$char_traits@D@std@@@std@@QAEAAV01@N@Z
  00054	3b fc		 cmp	 edi, esp
  00056	e8 00 00 00 00	 call	 __RTC_CheckEsp
  0005b	8b c8		 mov	 ecx, eax
  0005d	ff 15 00 00 00
	00		 call	 DWORD PTR __imp_??6?$basic_ostream@DU?$char_traits@D@std@@@std@@QAEAAV01@P6AAAV01@AAV01@@Z@Z
  00063	3b f4		 cmp	 esi, esp
  00065	e8 00 00 00 00	 call	 __RTC_CheckEsp

; 17   : 		return a + b;

  0006a	f2 0f 10 45 08	 movsd	 xmm0, QWORD PTR _a$[ebp]
  0006f	f2 0f 58 45 10	 addsd	 xmm0, QWORD PTR _b$[ebp]
  00074	f2 0f 11 85 38
	ff ff ff	 movsd	 QWORD PTR tv85[ebp], xmm0
  0007c	dd 85 38 ff ff
	ff		 fld	 QWORD PTR tv85[ebp]

; 18   : 	}

  00082	5f		 pop	 edi
  00083	5e		 pop	 esi
  00084	5b		 pop	 ebx
  00085	81 c4 c8 00 00
	00		 add	 esp, 200		; 000000c8H
  0008b	3b ec		 cmp	 ebp, esp
  0008d	e8 00 00 00 00	 call	 __RTC_CheckEsp
  00092	8b e5		 mov	 esp, ebp
  00094	5d		 pop	 ebp
  00095	c3		 ret	 0
?Add@MyDLLFuncs@1@SANNN@Z ENDP				; MyDLLFuncs::MyDLLFuncs::Add
_TEXT	ENDS
; Function compile flags: /Odtp /RTCsu /ZI
; File d:\vs2015projects\dll-lib\mydll\mydll.cpp
;	COMDAT ?__empty_global_delete@@YAXPAXI@Z
_TEXT	SEGMENT
___formal$ = 8						; size = 4
___formal$ = 12						; size = 4
?__empty_global_delete@@YAXPAXI@Z PROC			; __empty_global_delete, COMDAT

  00000	55		 push	 ebp
  00001	8b ec		 mov	 ebp, esp
  00003	81 ec c0 00 00
	00		 sub	 esp, 192		; 000000c0H
  00009	53		 push	 ebx
  0000a	56		 push	 esi
  0000b	57		 push	 edi
  0000c	8d bd 40 ff ff
	ff		 lea	 edi, DWORD PTR [ebp-192]
  00012	b9 30 00 00 00	 mov	 ecx, 48			; 00000030H
  00017	b8 cc cc cc cc	 mov	 eax, -858993460		; ccccccccH
  0001c	f3 ab		 rep stosd
  0001e	5f		 pop	 edi
  0001f	5e		 pop	 esi
  00020	5b		 pop	 ebx
  00021	8b e5		 mov	 esp, ebp
  00023	5d		 pop	 ebp
  00024	c3		 ret	 0
?__empty_global_delete@@YAXPAXI@Z ENDP			; __empty_global_delete
_TEXT	ENDS
; Function compile flags: /Odtp /RTCsu /ZI
; File d:\vs2015projects\dll-lib\mydll\mydll.cpp
;	COMDAT ?__empty_global_delete@@YAXPAX@Z
_TEXT	SEGMENT
___formal$ = 8						; size = 4
?__empty_global_delete@@YAXPAX@Z PROC			; __empty_global_delete, COMDAT

  00000	55		 push	 ebp
  00001	8b ec		 mov	 ebp, esp
  00003	81 ec c0 00 00
	00		 sub	 esp, 192		; 000000c0H
  00009	53		 push	 ebx
  0000a	56		 push	 esi
  0000b	57		 push	 edi
  0000c	8d bd 40 ff ff
	ff		 lea	 edi, DWORD PTR [ebp-192]
  00012	b9 30 00 00 00	 mov	 ecx, 48			; 00000030H
  00017	b8 cc cc cc cc	 mov	 eax, -858993460		; ccccccccH
  0001c	f3 ab		 rep stosd
  0001e	5f		 pop	 edi
  0001f	5e		 pop	 esi
  00020	5b		 pop	 ebx
  00021	8b e5		 mov	 esp, ebp
  00023	5d		 pop	 ebp
  00024	c3		 ret	 0
?__empty_global_delete@@YAXPAX@Z ENDP			; __empty_global_delete
_TEXT	ENDS
END
